
AVRASM ver. 2.1.30  E:\Robot_Soccer\phan mem lap trinh robokit\Source Code Robokit\List\AK.asm Thu Aug 20 23:58:26 2015

E:\Robot_Soccer\phan mem lap trinh robokit\Source Code Robokit\List\AK.asm(1058): warning: Register r4 already defined by the .DEF directive
E:\Robot_Soccer\phan mem lap trinh robokit\Source Code Robokit\List\AK.asm(1059): warning: Register r6 already defined by the .DEF directive
E:\Robot_Soccer\phan mem lap trinh robokit\Source Code Robokit\List\AK.asm(1060): warning: Register r8 already defined by the .DEF directive
E:\Robot_Soccer\phan mem lap trinh robokit\Source Code Robokit\List\AK.asm(1061): warning: Register r10 already defined by the .DEF directive
E:\Robot_Soccer\phan mem lap trinh robokit\Source Code Robokit\List\AK.asm(1062): warning: Register r12 already defined by the .DEF directive
                 
                 
                 ;CodeVisionAVR C Compiler V2.05.0 Professional
                 ;(C) Copyright 1998-2010 Pavel Haiduc, HP InfoTech s.r.l.
                 ;http://www.hpinfotech.com
                 
                 ;Chip type                : ATmega32A
                 ;Program type             : Application
                 ;Clock frequency          : 8.000000 MHz
                 ;Memory model             : Small
                 ;Optimize for             : Size
                 ;(s)printf features       : float, width, precision
                 ;(s)scanf features        : int, width
                 ;External RAM size        : 0
                 ;Data Stack size          : 512 byte(s)
                 ;Heap size                : 0 byte(s)
                 ;Promote 'char' to 'int'  : Yes
                 ;'char' is unsigned       : Yes
                 ;8 bit enums              : Yes
                 ;global 'const' stored in FLASH: No
                 ;Enhanced core instructions    : On
                 ;Smart register allocation     : On
                 ;Automatic register allocation : On
                 
                 	#pragma AVRPART ADMIN PART_NAME ATmega32A
                 	#pragma AVRPART MEMORY PROG_FLASH 32768
                 	#pragma AVRPART MEMORY EEPROM 1024
                 	#pragma AVRPART MEMORY INT_SRAM SIZE 2143
                 	#pragma AVRPART MEMORY INT_SRAM START_ADDR 0x60
                 
                 	#define CALL_SUPPORTED 1
                 
                 	.LISTMAC
                 	.EQU UDRE=0x5
                 	.EQU RXC=0x7
                 	.EQU USR=0xB
                 	.EQU UDR=0xC
                 	.EQU SPSR=0xE
                 	.EQU SPDR=0xF
                 	.EQU EERE=0x0
                 	.EQU EEWE=0x1
                 	.EQU EEMWE=0x2
                 	.EQU EECR=0x1C
                 	.EQU EEDR=0x1D
                 	.EQU EEARL=0x1E
                 	.EQU EEARH=0x1F
                 	.EQU WDTCR=0x21
                 	.EQU MCUCR=0x35
                 	.EQU SPL=0x3D
                 	.EQU SPH=0x3E
                 	.EQU SREG=0x3F
                 
                 	.DEF R0X0=R0
                 	.DEF R0X1=R1
                 	.DEF R0X2=R2
                 	.DEF R0X3=R3
                 	.DEF R0X4=R4
                 	.DEF R0X5=R5
                 	.DEF R0X6=R6
                 	.DEF R0X7=R7
                 	.DEF R0X8=R8
                 	.DEF R0X9=R9
                 	.DEF R0XA=R10
                 	.DEF R0XB=R11
                 	.DEF R0XC=R12
                 	.DEF R0XD=R13
                 	.DEF R0XE=R14
                 	.DEF R0XF=R15
                 	.DEF R0X10=R16
                 	.DEF R0X11=R17
                 	.DEF R0X12=R18
                 	.DEF R0X13=R19
                 	.DEF R0X14=R20
                 	.DEF R0X15=R21
                 	.DEF R0X16=R22
                 	.DEF R0X17=R23
                 	.DEF R0X18=R24
                 	.DEF R0X19=R25
                 	.DEF R0X1A=R26
                 	.DEF R0X1B=R27
                 	.DEF R0X1C=R28
                 	.DEF R0X1D=R29
                 	.DEF R0X1E=R30
                 	.DEF R0X1F=R31
                 
                 	.EQU __SRAM_START=0x0060
                 	.EQU __SRAM_END=0x085F
                 	.EQU __DSTACK_SIZE=0x0200
                 	.EQU __HEAP_SIZE=0x0000
                 	.EQU __CLEAR_SRAM_SIZE=__SRAM_END-__SRAM_START+1
                 
                 	.MACRO __CPD1N
                 	CPI  R30,LOW(@0)
                 	LDI  R26,HIGH(@0)
                 	CPC  R31,R26
                 	LDI  R26,BYTE3(@0)
                 	CPC  R22,R26
                 	LDI  R26,BYTE4(@0)
                 	CPC  R23,R26
                 	.ENDM
                 
                 	.MACRO __CPD2N
                 	CPI  R26,LOW(@0)
                 	LDI  R30,HIGH(@0)
                 	CPC  R27,R30
                 	LDI  R30,BYTE3(@0)
                 	CPC  R24,R30
                 	LDI  R30,BYTE4(@0)
                 	CPC  R25,R30
                 	.ENDM
                 
                 	.MACRO __CPWRR
                 	CP   R@0,R@2
                 	CPC  R@1,R@3
                 	.ENDM
                 
                 	.MACRO __CPWRN
                 	CPI  R@0,LOW(@2)
                 	LDI  R30,HIGH(@2)
                 	CPC  R@1,R30
                 	.ENDM
                 
                 	.MACRO __ADDB1MN
                 	SUBI R30,LOW(-@0-(@1))
                 	.ENDM
                 
                 	.MACRO __ADDB2MN
                 	SUBI R26,LOW(-@0-(@1))
                 	.ENDM
                 
                 	.MACRO __ADDW1MN
                 	SUBI R30,LOW(-@0-(@1))
                 	SBCI R31,HIGH(-@0-(@1))
                 	.ENDM
                 
                 	.MACRO __ADDW2MN
                 	SUBI R26,LOW(-@0-(@1))
                 	SBCI R27,HIGH(-@0-(@1))
                 	.ENDM
                 
                 	.MACRO __ADDW1FN
                 	SUBI R30,LOW(-2*@0-(@1))
                 	SBCI R31,HIGH(-2*@0-(@1))
                 	.ENDM
                 
                 	.MACRO __ADDD1FN
                 	SUBI R30,LOW(-2*@0-(@1))
                 	SBCI R31,HIGH(-2*@0-(@1))
                 	SBCI R22,BYTE3(-2*@0-(@1))
                 	.ENDM
                 
                 	.MACRO __ADDD1N
                 	SUBI R30,LOW(-@0)
                 	SBCI R31,HIGH(-@0)
                 	SBCI R22,BYTE3(-@0)
                 	SBCI R23,BYTE4(-@0)
                 	.ENDM
                 
                 	.MACRO __ADDD2N
                 	SUBI R26,LOW(-@0)
                 	SBCI R27,HIGH(-@0)
                 	SBCI R24,BYTE3(-@0)
                 	SBCI R25,BYTE4(-@0)
                 	.ENDM
                 
                 	.MACRO __SUBD1N
                 	SUBI R30,LOW(@0)
                 	SBCI R31,HIGH(@0)
                 	SBCI R22,BYTE3(@0)
                 	SBCI R23,BYTE4(@0)
                 	.ENDM
                 
                 	.MACRO __SUBD2N
                 	SUBI R26,LOW(@0)
                 	SBCI R27,HIGH(@0)
                 	SBCI R24,BYTE3(@0)
                 	SBCI R25,BYTE4(@0)
                 	.ENDM
                 
                 	.MACRO __ANDBMNN
                 	LDS  R30,@0+(@1)
                 	ANDI R30,LOW(@2)
                 	STS  @0+(@1),R30
                 	.ENDM
                 
                 	.MACRO __ANDWMNN
                 	LDS  R30,@0+(@1)
                 	ANDI R30,LOW(@2)
                 	STS  @0+(@1),R30
                 	LDS  R30,@0+(@1)+1
                 	ANDI R30,HIGH(@2)
                 	STS  @0+(@1)+1,R30
                 	.ENDM
                 
                 	.MACRO __ANDD1N
                 	ANDI R30,LOW(@0)
                 	ANDI R31,HIGH(@0)
                 	ANDI R22,BYTE3(@0)
                 	ANDI R23,BYTE4(@0)
                 	.ENDM
                 
                 	.MACRO __ANDD2N
                 	ANDI R26,LOW(@0)
                 	ANDI R27,HIGH(@0)
                 	ANDI R24,BYTE3(@0)
                 	ANDI R25,BYTE4(@0)
                 	.ENDM
                 
                 	.MACRO __ORBMNN
                 	LDS  R30,@0+(@1)
                 	ORI  R30,LOW(@2)
                 	STS  @0+(@1),R30
                 	.ENDM
                 
                 	.MACRO __ORWMNN
                 	LDS  R30,@0+(@1)
                 	ORI  R30,LOW(@2)
                 	STS  @0+(@1),R30
                 	LDS  R30,@0+(@1)+1
                 	ORI  R30,HIGH(@2)
                 	STS  @0+(@1)+1,R30
                 	.ENDM
                 
                 	.MACRO __ORD1N
                 	ORI  R30,LOW(@0)
                 	ORI  R31,HIGH(@0)
                 	ORI  R22,BYTE3(@0)
                 	ORI  R23,BYTE4(@0)
                 	.ENDM
                 
                 	.MACRO __ORD2N
                 	ORI  R26,LOW(@0)
                 	ORI  R27,HIGH(@0)
                 	ORI  R24,BYTE3(@0)
                 	ORI  R25,BYTE4(@0)
                 	.ENDM
                 
                 	.MACRO __DELAY_USB
                 	LDI  R24,LOW(@0)
                 __DELAY_USB_LOOP:
                 	DEC  R24
                 	BRNE __DELAY_USB_LOOP
                 	.ENDM
                 
                 	.MACRO __DELAY_USW
                 	LDI  R24,LOW(@0)
                 	LDI  R25,HIGH(@0)
                 __DELAY_USW_LOOP:
                 	SBIW R24,1
                 	BRNE __DELAY_USW_LOOP
                 	.ENDM
                 
                 	.MACRO __GETD1S
                 	LDD  R30,Y+@0
                 	LDD  R31,Y+@0+1
                 	LDD  R22,Y+@0+2
                 	LDD  R23,Y+@0+3
                 	.ENDM
                 
                 	.MACRO __GETD2S
                 	LDD  R26,Y+@0
                 	LDD  R27,Y+@0+1
                 	LDD  R24,Y+@0+2
                 	LDD  R25,Y+@0+3
                 	.ENDM
                 
                 	.MACRO __PUTD1S
                 	STD  Y+@0,R30
                 	STD  Y+@0+1,R31
                 	STD  Y+@0+2,R22
                 	STD  Y+@0+3,R23
                 	.ENDM
                 
                 	.MACRO __PUTD2S
                 	STD  Y+@0,R26
                 	STD  Y+@0+1,R27
                 	STD  Y+@0+2,R24
                 	STD  Y+@0+3,R25
                 	.ENDM
                 
                 	.MACRO __PUTDZ2
                 	STD  Z+@0,R26
                 	STD  Z+@0+1,R27
                 	STD  Z+@0+2,R24
                 	STD  Z+@0+3,R25
                 	.ENDM
                 
                 	.MACRO __CLRD1S
                 	STD  Y+@0,R30
                 	STD  Y+@0+1,R30
                 	STD  Y+@0+2,R30
                 	STD  Y+@0+3,R30
                 	.ENDM
                 
                 	.MACRO __POINTB1MN
                 	LDI  R30,LOW(@0+(@1))
                 	.ENDM
                 
                 	.MACRO __POINTW1MN
                 	LDI  R30,LOW(@0+(@1))
                 	LDI  R31,HIGH(@0+(@1))
                 	.ENDM
                 
                 	.MACRO __POINTD1M
                 	LDI  R30,LOW(@0)
                 	LDI  R31,HIGH(@0)
                 	LDI  R22,BYTE3(@0)
                 	LDI  R23,BYTE4(@0)
                 	.ENDM
                 
                 	.MACRO __POINTW1FN
                 	LDI  R30,LOW(2*@0+(@1))
                 	LDI  R31,HIGH(2*@0+(@1))
                 	.ENDM
                 
                 	.MACRO __POINTD1FN
                 	LDI  R30,LOW(2*@0+(@1))
                 	LDI  R31,HIGH(2*@0+(@1))
                 	LDI  R22,BYTE3(2*@0+(@1))
                 	LDI  R23,BYTE4(2*@0+(@1))
                 	.ENDM
                 
                 	.MACRO __POINTB2MN
                 	LDI  R26,LOW(@0+(@1))
                 	.ENDM
                 
                 	.MACRO __POINTW2MN
                 	LDI  R26,LOW(@0+(@1))
                 	LDI  R27,HIGH(@0+(@1))
                 	.ENDM
                 
                 	.MACRO __POINTBRM
                 	LDI  R@0,LOW(@1)
                 	.ENDM
                 
                 	.MACRO __POINTWRM
                 	LDI  R@0,LOW(@2)
                 	LDI  R@1,HIGH(@2)
                 	.ENDM
                 
                 	.MACRO __POINTBRMN
                 	LDI  R@0,LOW(@1+(@2))
                 	.ENDM
                 
                 	.MACRO __POINTWRMN
                 	LDI  R@0,LOW(@2+(@3))
                 	LDI  R@1,HIGH(@2+(@3))
                 	.ENDM
                 
                 	.MACRO __POINTWRFN
                 	LDI  R@0,LOW(@2*2+(@3))
                 	LDI  R@1,HIGH(@2*2+(@3))
                 	.ENDM
                 
                 	.MACRO __GETD1N
                 	LDI  R30,LOW(@0)
                 	LDI  R31,HIGH(@0)
                 	LDI  R22,BYTE3(@0)
                 	LDI  R23,BYTE4(@0)
                 	.ENDM
                 
                 	.MACRO __GETD2N
                 	LDI  R26,LOW(@0)
                 	LDI  R27,HIGH(@0)
                 	LDI  R24,BYTE3(@0)
                 	LDI  R25,BYTE4(@0)
                 	.ENDM
                 
                 	.MACRO __GETB1MN
                 	LDS  R30,@0+(@1)
                 	.ENDM
                 
                 	.MACRO __GETB1HMN
                 	LDS  R31,@0+(@1)
                 	.ENDM
                 
                 	.MACRO __GETW1MN
                 	LDS  R30,@0+(@1)
                 	LDS  R31,@0+(@1)+1
                 	.ENDM
                 
                 	.MACRO __GETD1MN
                 	LDS  R30,@0+(@1)
                 	LDS  R31,@0+(@1)+1
                 	LDS  R22,@0+(@1)+2
                 	LDS  R23,@0+(@1)+3
                 	.ENDM
                 
                 	.MACRO __GETBRMN
                 	LDS  R@0,@1+(@2)
                 	.ENDM
                 
                 	.MACRO __GETWRMN
                 	LDS  R@0,@2+(@3)
                 	LDS  R@1,@2+(@3)+1
                 	.ENDM
                 
                 	.MACRO __GETWRZ
                 	LDD  R@0,Z+@2
                 	LDD  R@1,Z+@2+1
                 	.ENDM
                 
                 	.MACRO __GETD2Z
                 	LDD  R26,Z+@0
                 	LDD  R27,Z+@0+1
                 	LDD  R24,Z+@0+2
                 	LDD  R25,Z+@0+3
                 	.ENDM
                 
                 	.MACRO __GETB2MN
                 	LDS  R26,@0+(@1)
                 	.ENDM
                 
                 	.MACRO __GETW2MN
                 	LDS  R26,@0+(@1)
                 	LDS  R27,@0+(@1)+1
                 	.ENDM
                 
                 	.MACRO __GETD2MN
                 	LDS  R26,@0+(@1)
                 	LDS  R27,@0+(@1)+1
                 	LDS  R24,@0+(@1)+2
                 	LDS  R25,@0+(@1)+3
                 	.ENDM
                 
                 	.MACRO __PUTB1MN
                 	STS  @0+(@1),R30
                 	.ENDM
                 
                 	.MACRO __PUTW1MN
                 	STS  @0+(@1),R30
                 	STS  @0+(@1)+1,R31
                 	.ENDM
                 
                 	.MACRO __PUTD1MN
                 	STS  @0+(@1),R30
                 	STS  @0+(@1)+1,R31
                 	STS  @0+(@1)+2,R22
                 	STS  @0+(@1)+3,R23
                 	.ENDM
                 
                 	.MACRO __PUTB1EN
                 	LDI  R26,LOW(@0+(@1))
                 	LDI  R27,HIGH(@0+(@1))
                 	CALL __EEPROMWRB
                 	.ENDM
                 
                 	.MACRO __PUTW1EN
                 	LDI  R26,LOW(@0+(@1))
                 	LDI  R27,HIGH(@0+(@1))
                 	CALL __EEPROMWRW
                 	.ENDM
                 
                 	.MACRO __PUTD1EN
                 	LDI  R26,LOW(@0+(@1))
                 	LDI  R27,HIGH(@0+(@1))
                 	CALL __EEPROMWRD
                 	.ENDM
                 
                 	.MACRO __PUTBR0MN
                 	STS  @0+(@1),R0
                 	.ENDM
                 
                 	.MACRO __PUTBMRN
                 	STS  @0+(@1),R@2
                 	.ENDM
                 
                 	.MACRO __PUTWMRN
                 	STS  @0+(@1),R@2
                 	STS  @0+(@1)+1,R@3
                 	.ENDM
                 
                 	.MACRO __PUTBZR
                 	STD  Z+@1,R@0
                 	.ENDM
                 
                 	.MACRO __PUTWZR
                 	STD  Z+@2,R@0
                 	STD  Z+@2+1,R@1
                 	.ENDM
                 
                 	.MACRO __GETW1R
                 	MOV  R30,R@0
                 	MOV  R31,R@1
                 	.ENDM
                 
                 	.MACRO __GETW2R
                 	MOV  R26,R@0
                 	MOV  R27,R@1
                 	.ENDM
                 
                 	.MACRO __GETWRN
                 	LDI  R@0,LOW(@2)
                 	LDI  R@1,HIGH(@2)
                 	.ENDM
                 
                 	.MACRO __PUTW1R
                 	MOV  R@0,R30
                 	MOV  R@1,R31
                 	.ENDM
                 
                 	.MACRO __PUTW2R
                 	MOV  R@0,R26
                 	MOV  R@1,R27
                 	.ENDM
                 
                 	.MACRO __ADDWRN
                 	SUBI R@0,LOW(-@2)
                 	SBCI R@1,HIGH(-@2)
                 	.ENDM
                 
                 	.MACRO __ADDWRR
                 	ADD  R@0,R@2
                 	ADC  R@1,R@3
                 	.ENDM
                 
                 	.MACRO __SUBWRN
                 	SUBI R@0,LOW(@2)
                 	SBCI R@1,HIGH(@2)
                 	.ENDM
                 
                 	.MACRO __SUBWRR
                 	SUB  R@0,R@2
                 	SBC  R@1,R@3
                 	.ENDM
                 
                 	.MACRO __ANDWRN
                 	ANDI R@0,LOW(@2)
                 	ANDI R@1,HIGH(@2)
                 	.ENDM
                 
                 	.MACRO __ANDWRR
                 	AND  R@0,R@2
                 	AND  R@1,R@3
                 	.ENDM
                 
                 	.MACRO __ORWRN
                 	ORI  R@0,LOW(@2)
                 	ORI  R@1,HIGH(@2)
                 	.ENDM
                 
                 	.MACRO __ORWRR
                 	OR   R@0,R@2
                 	OR   R@1,R@3
                 	.ENDM
                 
                 	.MACRO __EORWRR
                 	EOR  R@0,R@2
                 	EOR  R@1,R@3
                 	.ENDM
                 
                 	.MACRO __GETWRS
                 	LDD  R@0,Y+@2
                 	LDD  R@1,Y+@2+1
                 	.ENDM
                 
                 	.MACRO __PUTBSR
                 	STD  Y+@1,R@0
                 	.ENDM
                 
                 	.MACRO __PUTWSR
                 	STD  Y+@2,R@0
                 	STD  Y+@2+1,R@1
                 	.ENDM
                 
                 	.MACRO __MOVEWRR
                 	MOV  R@0,R@2
                 	MOV  R@1,R@3
                 	.ENDM
                 
                 	.MACRO __INWR
                 	IN   R@0,@2
                 	IN   R@1,@2+1
                 	.ENDM
                 
                 	.MACRO __OUTWR
                 	OUT  @2+1,R@1
                 	OUT  @2,R@0
                 	.ENDM
                 
                 	.MACRO __CALL1MN
                 	LDS  R30,@0+(@1)
                 	LDS  R31,@0+(@1)+1
                 	ICALL
                 	.ENDM
                 
                 	.MACRO __CALL1FN
                 	LDI  R30,LOW(2*@0+(@1))
                 	LDI  R31,HIGH(2*@0+(@1))
                 	CALL __GETW1PF
                 	ICALL
                 	.ENDM
                 
                 	.MACRO __CALL2EN
                 	LDI  R26,LOW(@0+(@1))
                 	LDI  R27,HIGH(@0+(@1))
                 	CALL __EEPROMRDW
                 	ICALL
                 	.ENDM
                 
                 	.MACRO __GETW1STACK
                 	IN   R26,SPL
                 	IN   R27,SPH
                 	ADIW R26,@0+1
                 	LD   R30,X+
                 	LD   R31,X
                 	.ENDM
                 
                 	.MACRO __GETD1STACK
                 	IN   R26,SPL
                 	IN   R27,SPH
                 	ADIW R26,@0+1
                 	LD   R30,X+
                 	LD   R31,X+
                 	LD   R22,X
                 	.ENDM
                 
                 	.MACRO __NBST
                 	BST  R@0,@1
                 	IN   R30,SREG
                 	LDI  R31,0x40
                 	EOR  R30,R31
                 	OUT  SREG,R30
                 	.ENDM
                 
                 
                 	.MACRO __PUTB1SN
                 	LDD  R26,Y+@0
                 	LDD  R27,Y+@0+1
                 	SUBI R26,LOW(-@1)
                 	SBCI R27,HIGH(-@1)
                 	ST   X,R30
                 	.ENDM
                 
                 	.MACRO __PUTW1SN
                 	LDD  R26,Y+@0
                 	LDD  R27,Y+@0+1
                 	SUBI R26,LOW(-@1)
                 	SBCI R27,HIGH(-@1)
                 	ST   X+,R30
                 	ST   X,R31
                 	.ENDM
                 
                 	.MACRO __PUTD1SN
                 	LDD  R26,Y+@0
                 	LDD  R27,Y+@0+1
                 	SUBI R26,LOW(-@1)
                 	SBCI R27,HIGH(-@1)
                 	CALL __PUTDP1
                 	.ENDM
                 
                 	.MACRO __PUTB1SNS
                 	LDD  R26,Y+@0
                 	LDD  R27,Y+@0+1
                 	ADIW R26,@1
                 	ST   X,R30
                 	.ENDM
                 
                 	.MACRO __PUTW1SNS
                 	LDD  R26,Y+@0
                 	LDD  R27,Y+@0+1
                 	ADIW R26,@1
                 	ST   X+,R30
                 	ST   X,R31
                 	.ENDM
                 
                 	.MACRO __PUTD1SNS
                 	LDD  R26,Y+@0
                 	LDD  R27,Y+@0+1
                 	ADIW R26,@1
                 	CALL __PUTDP1
                 	.ENDM
                 
                 	.MACRO __PUTB1PMN
                 	LDS  R26,@0
                 	LDS  R27,@0+1
                 	SUBI R26,LOW(-@1)
                 	SBCI R27,HIGH(-@1)
                 	ST   X,R30
                 	.ENDM
                 
                 	.MACRO __PUTW1PMN
                 	LDS  R26,@0
                 	LDS  R27,@0+1
                 	SUBI R26,LOW(-@1)
                 	SBCI R27,HIGH(-@1)
                 	ST   X+,R30
                 	ST   X,R31
                 	.ENDM
                 
                 	.MACRO __PUTD1PMN
                 	LDS  R26,@0
                 	LDS  R27,@0+1
                 	SUBI R26,LOW(-@1)
                 	SBCI R27,HIGH(-@1)
                 	CALL __PUTDP1
                 	.ENDM
                 
                 	.MACRO __PUTB1PMNS
                 	LDS  R26,@0
                 	LDS  R27,@0+1
                 	ADIW R26,@1
                 	ST   X,R30
                 	.ENDM
                 
                 	.MACRO __PUTW1PMNS
                 	LDS  R26,@0
                 	LDS  R27,@0+1
                 	ADIW R26,@1
                 	ST   X+,R30
                 	ST   X,R31
                 	.ENDM
                 
                 	.MACRO __PUTD1PMNS
                 	LDS  R26,@0
                 	LDS  R27,@0+1
                 	ADIW R26,@1
                 	CALL __PUTDP1
                 	.ENDM
                 
                 	.MACRO __PUTB1RN
                 	MOVW R26,R@0
                 	SUBI R26,LOW(-@1)
                 	SBCI R27,HIGH(-@1)
                 	ST   X,R30
                 	.ENDM
                 
                 	.MACRO __PUTW1RN
                 	MOVW R26,R@0
                 	SUBI R26,LOW(-@1)
                 	SBCI R27,HIGH(-@1)
                 	ST   X+,R30
                 	ST   X,R31
                 	.ENDM
                 
                 	.MACRO __PUTD1RN
                 	MOVW R26,R@0
                 	SUBI R26,LOW(-@1)
                 	SBCI R27,HIGH(-@1)
                 	CALL __PUTDP1
                 	.ENDM
                 
                 	.MACRO __PUTB1RNS
                 	MOVW R26,R@0
                 	ADIW R26,@1
                 	ST   X,R30
                 	.ENDM
                 
                 	.MACRO __PUTW1RNS
                 	MOVW R26,R@0
                 	ADIW R26,@1
                 	ST   X+,R30
                 	ST   X,R31
                 	.ENDM
                 
                 	.MACRO __PUTD1RNS
                 	MOVW R26,R@0
                 	ADIW R26,@1
                 	CALL __PUTDP1
                 	.ENDM
                 
                 	.MACRO __PUTB1RON
                 	MOV  R26,R@0
                 	MOV  R27,R@1
                 	SUBI R26,LOW(-@2)
                 	SBCI R27,HIGH(-@2)
                 	ST   X,R30
                 	.ENDM
                 
                 	.MACRO __PUTW1RON
                 	MOV  R26,R@0
                 	MOV  R27,R@1
                 	SUBI R26,LOW(-@2)
                 	SBCI R27,HIGH(-@2)
                 	ST   X+,R30
                 	ST   X,R31
                 	.ENDM
                 
                 	.MACRO __PUTD1RON
                 	MOV  R26,R@0
                 	MOV  R27,R@1
                 	SUBI R26,LOW(-@2)
                 	SBCI R27,HIGH(-@2)
                 	CALL __PUTDP1
                 	.ENDM
                 
                 	.MACRO __PUTB1RONS
                 	MOV  R26,R@0
                 	MOV  R27,R@1
                 	ADIW R26,@2
                 	ST   X,R30
                 	.ENDM
                 
                 	.MACRO __PUTW1RONS
                 	MOV  R26,R@0
                 	MOV  R27,R@1
                 	ADIW R26,@2
                 	ST   X+,R30
                 	ST   X,R31
                 	.ENDM
                 
                 	.MACRO __PUTD1RONS
                 	MOV  R26,R@0
                 	MOV  R27,R@1
                 	ADIW R26,@2
                 	CALL __PUTDP1
                 	.ENDM
                 
                 
                 	.MACRO __GETB1SX
                 	MOVW R30,R28
                 	SUBI R30,LOW(-@0)
                 	SBCI R31,HIGH(-@0)
                 	LD   R30,Z
                 	.ENDM
                 
                 	.MACRO __GETB1HSX
                 	MOVW R30,R28
                 	SUBI R30,LOW(-@0)
                 	SBCI R31,HIGH(-@0)
                 	LD   R31,Z
                 	.ENDM
                 
                 	.MACRO __GETW1SX
                 	MOVW R30,R28
                 	SUBI R30,LOW(-@0)
                 	SBCI R31,HIGH(-@0)
                 	LD   R0,Z+
                 	LD   R31,Z
                 	MOV  R30,R0
                 	.ENDM
                 
                 	.MACRO __GETD1SX
                 	MOVW R30,R28
                 	SUBI R30,LOW(-@0)
                 	SBCI R31,HIGH(-@0)
                 	LD   R0,Z+
                 	LD   R1,Z+
                 	LD   R22,Z+
                 	LD   R23,Z
                 	MOVW R30,R0
                 	.ENDM
                 
                 	.MACRO __GETB2SX
                 	MOVW R26,R28
                 	SUBI R26,LOW(-@0)
                 	SBCI R27,HIGH(-@0)
                 	LD   R26,X
                 	.ENDM
                 
                 	.MACRO __GETW2SX
                 	MOVW R26,R28
                 	SUBI R26,LOW(-@0)
                 	SBCI R27,HIGH(-@0)
                 	LD   R0,X+
                 	LD   R27,X
                 	MOV  R26,R0
                 	.ENDM
                 
                 	.MACRO __GETD2SX
                 	MOVW R26,R28
                 	SUBI R26,LOW(-@0)
                 	SBCI R27,HIGH(-@0)
                 	LD   R0,X+
                 	LD   R1,X+
                 	LD   R24,X+
                 	LD   R25,X
                 	MOVW R26,R0
                 	.ENDM
                 
                 	.MACRO __GETBRSX
                 	MOVW R30,R28
                 	SUBI R30,LOW(-@1)
                 	SBCI R31,HIGH(-@1)
                 	LD   R@0,Z
                 	.ENDM
                 
                 	.MACRO __GETWRSX
                 	MOVW R30,R28
                 	SUBI R30,LOW(-@2)
                 	SBCI R31,HIGH(-@2)
                 	LD   R@0,Z+
                 	LD   R@1,Z
                 	.ENDM
                 
                 	.MACRO __GETBRSX2
                 	MOVW R26,R28
                 	SUBI R26,LOW(-@1)
                 	SBCI R27,HIGH(-@1)
                 	LD   R@0,X
                 	.ENDM
                 
                 	.MACRO __GETWRSX2
                 	MOVW R26,R28
                 	SUBI R26,LOW(-@2)
                 	SBCI R27,HIGH(-@2)
                 	LD   R@0,X+
                 	LD   R@1,X
                 	.ENDM
                 
                 	.MACRO __LSLW8SX
                 	MOVW R30,R28
                 	SUBI R30,LOW(-@0)
                 	SBCI R31,HIGH(-@0)
                 	LD   R31,Z
                 	CLR  R30
                 	.ENDM
                 
                 	.MACRO __PUTB1SX
                 	MOVW R26,R28
                 	SUBI R26,LOW(-@0)
                 	SBCI R27,HIGH(-@0)
                 	ST   X,R30
                 	.ENDM
                 
                 	.MACRO __PUTW1SX
                 	MOVW R26,R28
                 	SUBI R26,LOW(-@0)
                 	SBCI R27,HIGH(-@0)
                 	ST   X+,R30
                 	ST   X,R31
                 	.ENDM
                 
                 	.MACRO __PUTD1SX
                 	MOVW R26,R28
                 	SUBI R26,LOW(-@0)
                 	SBCI R27,HIGH(-@0)
                 	ST   X+,R30
                 	ST   X+,R31
                 	ST   X+,R22
                 	ST   X,R23
                 	.ENDM
                 
                 	.MACRO __CLRW1SX
                 	MOVW R26,R28
                 	SUBI R26,LOW(-@0)
                 	SBCI R27,HIGH(-@0)
                 	ST   X+,R30
                 	ST   X,R30
                 	.ENDM
                 
                 	.MACRO __CLRD1SX
                 	MOVW R26,R28
                 	SUBI R26,LOW(-@0)
                 	SBCI R27,HIGH(-@0)
                 	ST   X+,R30
                 	ST   X+,R30
                 	ST   X+,R30
                 	ST   X,R30
                 	.ENDM
                 
                 	.MACRO __PUTB2SX
                 	MOVW R30,R28
                 	SUBI R30,LOW(-@0)
                 	SBCI R31,HIGH(-@0)
                 	ST   Z,R26
                 	.ENDM
                 
                 	.MACRO __PUTW2SX
                 	MOVW R30,R28
                 	SUBI R30,LOW(-@0)
                 	SBCI R31,HIGH(-@0)
                 	ST   Z+,R26
                 	ST   Z,R27
                 	.ENDM
                 
                 	.MACRO __PUTD2SX
                 	MOVW R30,R28
                 	SUBI R30,LOW(-@0)
                 	SBCI R31,HIGH(-@0)
                 	ST   Z+,R26
                 	ST   Z+,R27
                 	ST   Z+,R24
                 	ST   Z,R25
                 	.ENDM
                 
                 	.MACRO __PUTBSRX
                 	MOVW R30,R28
                 	SUBI R30,LOW(-@1)
                 	SBCI R31,HIGH(-@1)
                 	ST   Z,R@0
                 	.ENDM
                 
                 	.MACRO __PUTWSRX
                 	MOVW R30,R28
                 	SUBI R30,LOW(-@2)
                 	SBCI R31,HIGH(-@2)
                 	ST   Z+,R@0
                 	ST   Z,R@1
                 	.ENDM
                 
                 	.MACRO __PUTB1SNX
                 	MOVW R26,R28
                 	SUBI R26,LOW(-@0)
                 	SBCI R27,HIGH(-@0)
                 	LD   R0,X+
                 	LD   R27,X
                 	MOV  R26,R0
                 	SUBI R26,LOW(-@1)
                 	SBCI R27,HIGH(-@1)
                 	ST   X,R30
                 	.ENDM
                 
                 	.MACRO __PUTW1SNX
                 	MOVW R26,R28
                 	SUBI R26,LOW(-@0)
                 	SBCI R27,HIGH(-@0)
                 	LD   R0,X+
                 	LD   R27,X
                 	MOV  R26,R0
                 	SUBI R26,LOW(-@1)
                 	SBCI R27,HIGH(-@1)
                 	ST   X+,R30
                 	ST   X,R31
                 	.ENDM
                 
                 	.MACRO __PUTD1SNX
                 	MOVW R26,R28
                 	SUBI R26,LOW(-@0)
                 	SBCI R27,HIGH(-@0)
                 	LD   R0,X+
                 	LD   R27,X
                 	MOV  R26,R0
                 	SUBI R26,LOW(-@1)
                 	SBCI R27,HIGH(-@1)
                 	ST   X+,R30
                 	ST   X+,R31
                 	ST   X+,R22
                 	ST   X,R23
                 	.ENDM
                 
                 	.MACRO __MULBRR
                 	MULS R@0,R@1
                 	MOVW R30,R0
                 	.ENDM
                 
                 	.MACRO __MULBRRU
                 	MUL  R@0,R@1
                 	MOVW R30,R0
                 	.ENDM
                 
                 	.MACRO __MULBRR0
                 	MULS R@0,R@1
                 	.ENDM
                 
                 	.MACRO __MULBRRU0
                 	MUL  R@0,R@1
                 	.ENDM
                 
                 	.MACRO __MULBNWRU
                 	LDI  R26,@2
                 	MUL  R26,R@0
                 	MOVW R30,R0
                 	MUL  R26,R@1
                 	ADD  R31,R0
                 	.ENDM
                 
                 ;NAME DEFINITIONS FOR GLOBAL VARIABLES ALLOCATED TO REGISTERS
                 	.DEF _flagtancong=R4
                 	.DEF _offsetphongthu=R6
                 	.DEF _goctancong=R8
                 	.DEF _cmdCtrlRobot=R10
                 	.DEF _idRobot=R12
                 
                 	.CSEG
                 	.ORG 0x00
                 
                 ;START OF CODE MARKER
                 __START_OF_CODE:
                 
                 ;INTERRUPT VECTORS
000000 940c 0280 	JMP  __RESET
000002 940c 04f1 	JMP  _ext_int0_isr
000004 940c 04f6 	JMP  _ext_int1_isr
000006 940c 0000 	JMP  0x00
000008 940c 0000 	JMP  0x00
00000a 940c 0000 	JMP  0x00
00000c 940c 0000 	JMP  0x00
00000e 940c 0000 	JMP  0x00
000010 940c 0000 	JMP  0x00
000012 940c 0543 	JMP  _timer1_ovf_isr
000014 940c 0000 	JMP  0x00
000016 940c 0000 	JMP  0x00
000018 940c 0000 	JMP  0x00
00001a 940c 0457 	JMP  _usart_rx_isr
00001c 940c 0000 	JMP  0x00
00001e 940c 049f 	JMP  _usart_tx_isr
000020 940c 0000 	JMP  0x00
000022 940c 0000 	JMP  0x00
000024 940c 0000 	JMP  0x00
000026 940c 0000 	JMP  0x00
000028 940c 0000 	JMP  0x00
                 
                 _ASCII:
00002a 0000
00002b 0000
00002c 0000
00002d 5f00      	.DB  0x0,0x0,0x0,0x0,0x0,0x0,0x0,0x5F
00002e 0000
00002f 0700
000030 0700
000031 1400      	.DB  0x0,0x0,0x0,0x7,0x0,0x7,0x0,0x14
000032 147f
000033 147f
000034 2a24
000035 2a7f      	.DB  0x7F,0x14,0x7F,0x14,0x24,0x2A,0x7F,0x2A
000036 2312
000037 0813
000038 6264
000039 4936      	.DB  0x12,0x23,0x13,0x8,0x64,0x62,0x36,0x49
00003a 2255
00003b 0050
00003c 0305
00003d 0000      	.DB  0x55,0x22,0x50,0x0,0x5,0x3,0x0,0x0
00003e 1c00
00003f 4122
000040 0000
000041 2241      	.DB  0x0,0x1C,0x22,0x41,0x0,0x0,0x41,0x22
000042 001c
000043 0814
000044 083e
000045 0814      	.DB  0x1C,0x0,0x14,0x8,0x3E,0x8,0x14,0x8
000046 3e08
000047 0808
000048 5000
000049 0030      	.DB  0x8,0x3E,0x8,0x8,0x0,0x50,0x30,0x0
00004a 0800
00004b 0808
00004c 0808
00004d 6000      	.DB  0x0,0x8,0x8,0x8,0x8,0x8,0x0,0x60
00004e 0060
00004f 2000
000050 0810
000051 0204      	.DB  0x60,0x0,0x0,0x20,0x10,0x8,0x4,0x2
000052 513e
000053 4549
000054 003e
000055 7f42      	.DB  0x3E,0x51,0x49,0x45,0x3E,0x0,0x42,0x7F
000056 0040
000057 6142
000058 4951
000059 2146      	.DB  0x40,0x0,0x42,0x61,0x51,0x49,0x46,0x21
00005a 4541
00005b 314b
00005c 1418
00005d 7f12      	.DB  0x41,0x45,0x4B,0x31,0x18,0x14,0x12,0x7F
00005e 2710
00005f 4545
000060 3945
000061 4a3c      	.DB  0x10,0x27,0x45,0x45,0x45,0x39,0x3C,0x4A
000062 4949
000063 0130
000064 0971
000065 0305      	.DB  0x49,0x49,0x30,0x1,0x71,0x9,0x5,0x3
000066 4936
000067 4949
000068 0636
000069 4949      	.DB  0x36,0x49,0x49,0x49,0x36,0x6,0x49,0x49
00006a 1e29
00006b 3600
00006c 0036
00006d 0000      	.DB  0x29,0x1E,0x0,0x36,0x36,0x0,0x0,0x0
00006e 3656
00006f 0000
000070 1408
000071 4122      	.DB  0x56,0x36,0x0,0x0,0x8,0x14,0x22,0x41
000072 1400
000073 1414
000074 1414
000075 4100      	.DB  0x0,0x14,0x14,0x14,0x14,0x14,0x0,0x41
000076 1422
000077 0208
000078 5101
000079 0609      	.DB  0x22,0x14,0x8,0x2,0x1,0x51,0x9,0x6
00007a 4932
00007b 4179
00007c 7e3e
00007d 1111      	.DB  0x32,0x49,0x79,0x41,0x3E,0x7E,0x11,0x11
00007e 7e11
00007f 497f
000080 4949
000081 3e36      	.DB  0x11,0x7E,0x7F,0x49,0x49,0x49,0x36,0x3E
000082 4141
000083 2241
000084 417f
000085 2241      	.DB  0x41,0x41,0x41,0x22,0x7F,0x41,0x41,0x22
000086 7f1c
000087 4949
000088 4149
000089 097f      	.DB  0x1C,0x7F,0x49,0x49,0x49,0x41,0x7F,0x9
00008a 0909
00008b 3e01
00008c 4941
00008d 7a49      	.DB  0x9,0x9,0x1,0x3E,0x41,0x49,0x49,0x7A
00008e 087f
00008f 0808
000090 007f
000091 7f41      	.DB  0x7F,0x8,0x8,0x8,0x7F,0x0,0x41,0x7F
000092 0041
000093 4020
000094 3f41
000095 7f01      	.DB  0x41,0x0,0x20,0x40,0x41,0x3F,0x1,0x7F
000096 1408
000097 4122
000098 407f
000099 4040      	.DB  0x8,0x14,0x22,0x41,0x7F,0x40,0x40,0x40
00009a 7f40
00009b 0c02
00009c 7f02
00009d 047f      	.DB  0x40,0x7F,0x2,0xC,0x2,0x7F,0x7F,0x4
00009e 1008
00009f 3e7f
0000a0 4141
0000a1 3e41      	.DB  0x8,0x10,0x7F,0x3E,0x41,0x41,0x41,0x3E
0000a2 097f
0000a3 0909
0000a4 3e06
0000a5 5141      	.DB  0x7F,0x9,0x9,0x9,0x6,0x3E,0x41,0x51
0000a6 5e21
0000a7 097f
0000a8 2919
0000a9 4646      	.DB  0x21,0x5E,0x7F,0x9,0x19,0x29,0x46,0x46
0000aa 4949
0000ab 3149
0000ac 0101
0000ad 017f      	.DB  0x49,0x49,0x49,0x31,0x1,0x1,0x7F,0x1
0000ae 3f01
0000af 4040
0000b0 3f40
0000b1 201f      	.DB  0x1,0x3F,0x40,0x40,0x40,0x3F,0x1F,0x20
0000b2 2040
0000b3 3f1f
0000b4 3840
0000b5 3f40      	.DB  0x40,0x20,0x1F,0x3F,0x40,0x38,0x40,0x3F
0000b6 1463
0000b7 1408
0000b8 0763
0000b9 7008      	.DB  0x63,0x14,0x8,0x14,0x63,0x7,0x8,0x70
0000ba 0708
0000bb 5161
0000bc 4549
0000bd 0043      	.DB  0x8,0x7,0x61,0x51,0x49,0x45,0x43,0x0
0000be 417f
0000bf 0041
0000c0 0402
0000c1 1008      	.DB  0x7F,0x41,0x41,0x0,0x2,0x4,0x8,0x10
0000c2 0020
0000c3 4141
0000c4 007f
0000c5 0204      	.DB  0x20,0x0,0x41,0x41,0x7F,0x0,0x4,0x2
0000c6 0201
0000c7 4004
0000c8 4040
0000c9 4040      	.DB  0x1,0x2,0x4,0x40,0x40,0x40,0x40,0x40
0000ca 0100
0000cb 0402
0000cc 2000
0000cd 5454      	.DB  0x0,0x1,0x2,0x4,0x0,0x20,0x54,0x54
0000ce 7854
0000cf 487f
0000d0 4444
0000d1 3838      	.DB  0x54,0x78,0x7F,0x48,0x44,0x44,0x38,0x38
0000d2 4444
0000d3 2044
0000d4 4438
0000d5 4844      	.DB  0x44,0x44,0x44,0x20,0x38,0x44,0x44,0x48
0000d6 387f
0000d7 5454
0000d8 1854
0000d9 7e08      	.DB  0x7F,0x38,0x54,0x54,0x54,0x18,0x8,0x7E
0000da 0109
0000db 0c02
0000dc 5252
0000dd 3e52      	.DB  0x9,0x1,0x2,0xC,0x52,0x52,0x52,0x3E
0000de 087f
0000df 0404
0000e0 0078
0000e1 7d44      	.DB  0x7F,0x8,0x4,0x4,0x78,0x0,0x44,0x7D
0000e2 0040
0000e3 4020
0000e4 3d44
0000e5 7f00      	.DB  0x40,0x0,0x20,0x40,0x44,0x3D,0x0,0x7F
0000e6 2810
0000e7 0044
0000e8 4100
0000e9 407f      	.DB  0x10,0x28,0x44,0x0,0x0,0x41,0x7F,0x40
0000ea 7c00
0000eb 1804
0000ec 7804
0000ed 087c      	.DB  0x0,0x7C,0x4,0x18,0x4,0x78,0x7C,0x8
0000ee 0404
0000ef 3878
0000f0 4444
0000f1 3844      	.DB  0x4,0x4,0x78,0x38,0x44,0x44,0x44,0x38
0000f2 147c
0000f3 1414
0000f4 0808
0000f5 1414      	.DB  0x7C,0x14,0x14,0x14,0x8,0x8,0x14,0x14
0000f6 7c18
0000f7 087c
0000f8 0404
0000f9 4808      	.DB  0x18,0x7C,0x7C,0x8,0x4,0x4,0x8,0x48
0000fa 5454
0000fb 2054
0000fc 3f04
0000fd 4044      	.DB  0x54,0x54,0x54,0x20,0x4,0x3F,0x44,0x40
0000fe 3c20
0000ff 4040
000100 7c20
000101 201c      	.DB  0x20,0x3C,0x40,0x40,0x20,0x7C,0x1C,0x20
000102 2040
000103 3c1c
000104 3040
000105 3c40      	.DB  0x40,0x20,0x1C,0x3C,0x40,0x30,0x40,0x3C
000106 2844
000107 2810
000108 0c44
000109 5050      	.DB  0x44,0x28,0x10,0x28,0x44,0xC,0x50,0x50
00010a 3c50
00010b 6444
00010c 4c54
00010d 0044      	.DB  0x50,0x3C,0x44,0x64,0x54,0x4C,0x44,0x0
00010e 3608
00010f 0041
000110 0000
000111 007f      	.DB  0x8,0x36,0x41,0x0,0x0,0x0,0x7F,0x0
000112 0000
000113 3641
000114 0008
000115 0810      	.DB  0x0,0x0,0x41,0x36,0x8,0x0,0x10,0x8
000116 1008
000117 7808
000118 4146
000119 7846      	.DB  0x8,0x10,0x8,0x78,0x46,0x41,0x46,0x78
                 
                 ;REGISTER BIT VARIABLES INITIALIZATION
                 __REG_BIT_VARS:
00011a 0000      	.DW  0x0000
                 
                 _0x3:
00011b e7e7
00011c e7e7
E:\Robot_Soccer\phan mem lap trinh robokit\Source Code Robokit\List\AK.asm(1160): warning: .cseg .db misalignment - padding zero byte
00011d 00e7      	.DB  0xE7,0xE7,0xE7,0xE7,0xE7
                 _0x4:
00011e e7e7
00011f e7e7
E:\Robot_Soccer\phan mem lap trinh robokit\Source Code Robokit\List\AK.asm(1162): warning: .cseg .db misalignment - padding zero byte
000120 00e7      	.DB  0xE7,0xE7,0xE7,0xE7,0xE7
                 _0x20003:
E:\Robot_Soccer\phan mem lap trinh robokit\Source Code Robokit\List\AK.asm(1164): warning: .cseg .db misalignment - padding zero byte
000121 0001      	.DB  0x1
                 _0x20004:
E:\Robot_Soccer\phan mem lap trinh robokit\Source Code Robokit\List\AK.asm(1166): warning: .cseg .db misalignment - padding zero byte
000122 000a      	.DB  0xA
                 _0x20005:
E:\Robot_Soccer\phan mem lap trinh robokit\Source Code Robokit\List\AK.asm(1168): warning: .cseg .db misalignment - padding zero byte
000123 0001      	.DB  0x1
                 _0x20006:
E:\Robot_Soccer\phan mem lap trinh robokit\Source Code Robokit\List\AK.asm(1170): warning: .cseg .db misalignment - padding zero byte
000124 000a      	.DB  0xA
                 _0x20007:
E:\Robot_Soccer\phan mem lap trinh robokit\Source Code Robokit\List\AK.asm(1172): warning: .cseg .db misalignment - padding zero byte
000125 0001      	.DB  0x1
                 _0x20008:
E:\Robot_Soccer\phan mem lap trinh robokit\Source Code Robokit\List\AK.asm(1174): warning: .cseg .db misalignment - padding zero byte
000126 0001      	.DB  0x1
                 _0x201C1:
000127 0000
000128 0000
000129 0000
00012a 0000      	.DB  0x0,0x0,0x0,0x0,0x0,0x0,0x0,0x0
00012b 0000
00012c 0000
00012d 0000
00012e 0000      	.DB  0x0,0x0,0x0,0x0,0x0,0x0,0x0,0x0
00012f 0000
000130 0000
000131 0000
000132 0000      	.DB  0x0,0x0,0x0,0x0,0x0,0x0,0x0,0x0
000133 0000
000134 0000
000135 0000
000136 0000      	.DB  0x0,0x0,0x0,0x0,0x0,0x0,0x0,0x0
000137 0000
000138 0000
000139 0000
00013a 0000      	.DB  0x0,0x0,0x0,0x0,0x0,0x0,0x0,0x0
00013b 0000
00013c 0000
00013d 0000
00013e 0000      	.DB  0x0,0x0,0x0,0x0,0x0,0x0,0x0,0x0
00013f 0000
000140 0000
000141 0000
E:\Robot_Soccer\phan mem lap trinh robokit\Source Code Robokit\List\AK.asm(1182): warning: .cseg .db misalignment - padding zero byte
000142 0000      	.DB  0x0,0x0,0x0,0x0,0x0,0x0,0x0
                 _0x202F3:
000143 0001
000144 0000
000145 0000      	.DB  0x1,0x0,0x0,0x0,0x0,0x0
                 _0x20000:
000146 6425
000147 2500
000148 2e30
000149 6632      	.DB  0x25,0x64,0x0,0x25,0x30,0x2E,0x32,0x66
00014a 2000
00014b 413c
00014c 424b
00014d 544f      	.DB  0x0,0x20,0x3C,0x41,0x4B,0x42,0x4F,0x54
00014e 494b
00014f 3e54
000150 5200
000151 424f      	.DB  0x4B,0x49,0x54,0x3E,0x0,0x52,0x4F,0x42
000152 544f
000153 5720
000154 4c41
000155 004c      	.DB  0x4F,0x54,0x20,0x57,0x41,0x4C,0x4C,0x0
000156 4857
000157 5449
000158 2045
000159 494c      	.DB  0x57,0x48,0x49,0x54,0x45,0x20,0x4C,0x49
00015a 454e
00015b 4600
00015c 4c4f
00015d 574f      	.DB  0x4E,0x45,0x0,0x46,0x4F,0x4C,0x4F,0x57
00015e 5245
00015f 4200
000160 414c
000161 4b43      	.DB  0x45,0x52,0x0,0x42,0x4C,0x41,0x43,0x4B
000162 4c20
000163 4e49
000164 0045
000165 4c42      	.DB  0x20,0x4C,0x49,0x4E,0x45,0x0,0x42,0x4C
000166 4555
000167 4f54
000168 544f
000169 0048      	.DB  0x55,0x45,0x54,0x4F,0x4F,0x54,0x48,0x0
00016a 5244
00016b 5649
00016c 0045
00016d 4554      	.DB  0x44,0x52,0x49,0x56,0x45,0x0,0x54,0x45
00016e 5453
00016f 4d20
000170 544f
000171 524f      	.DB  0x53,0x54,0x20,0x4D,0x4F,0x54,0x4F,0x52
000172 4d00
000173 746f
000174 726f
000175 004c      	.DB  0x0,0x4D,0x6F,0x74,0x6F,0x72,0x4C,0x0
000176 6f4d
000177 6f74
000178 5272
000179 5400      	.DB  0x4D,0x6F,0x74,0x6F,0x72,0x52,0x0,0x54
00017a 5345
00017b 2054
00017c 4155
00017d 5452      	.DB  0x45,0x53,0x54,0x20,0x55,0x41,0x52,0x54
00017e 5400
00017f 5345
000180 2054
000181 5249      	.DB  0x0,0x54,0x45,0x53,0x54,0x20,0x49,0x52
000182 3000
000183 002e
000184 2e31
000185 3200      	.DB  0x0,0x30,0x2E,0x0,0x31,0x2E,0x0,0x32
000186 002e
000187 2e33
000188 3400
000189 002e      	.DB  0x2E,0x0,0x33,0x2E,0x0,0x34,0x2E,0x0
00018a 2e35
00018b 3600
00018c 002e
00018d 2e37      	.DB  0x35,0x2E,0x0,0x36,0x2E,0x0,0x37,0x2E
00018e 3c00
00018f 4553
000190 464c
000191 5420      	.DB  0x0,0x3C,0x53,0x45,0x4C,0x46,0x20,0x54
000192 5345
000193 3e54
000194 2a00
000195 2a2a      	.DB  0x45,0x53,0x54,0x3E,0x0,0x2A,0x2A,0x2A
000196 2a2a
000197 2a2a
000198 2a2a
000199 2a2a      	.DB  0x2A,0x2A,0x2A,0x2A,0x2A,0x2A,0x2A,0x2A
00019a 002a
00019b 4352
00019c 5320
00019d 5245      	.DB  0x2A,0x0,0x52,0x43,0x20,0x53,0x45,0x52
00019e 4f56
00019f 3100
0001a0 522e
0001a1 424f      	.DB  0x56,0x4F,0x0,0x31,0x2E,0x52,0x4F,0x42
0001a2 544f
0001a3 5720
0001a4 4c41
0001a5 004c      	.DB  0x4F,0x54,0x20,0x57,0x41,0x4C,0x4C,0x0
0001a6 2e32
0001a7 4c42
0001a8 4555
0001a9 4f54      	.DB  0x32,0x2E,0x42,0x4C,0x55,0x45,0x54,0x4F
0001aa 544f
0001ab 2048
0001ac 3300
0001ad 572e      	.DB  0x4F,0x54,0x48,0x20,0x0,0x33,0x2E,0x57
0001ae 4948
0001af 4554
0001b0 4c20
0001b1 4e49      	.DB  0x48,0x49,0x54,0x45,0x20,0x4C,0x49,0x4E
0001b2 0045
0001b3 2e34
0001b4 4c42
0001b5 4341      	.DB  0x45,0x0,0x34,0x2E,0x42,0x4C,0x41,0x43
0001b6 204b
0001b7 494c
0001b8 454e
0001b9 3500      	.DB  0x4B,0x20,0x4C,0x49,0x4E,0x45,0x0,0x35
0001ba 542e
0001bb 5345
0001bc 2054
0001bd 4f4d      	.DB  0x2E,0x54,0x45,0x53,0x54,0x20,0x4D,0x4F
0001be 4f54
0001bf 0052
0001c0 2e36
0001c1 4554      	.DB  0x54,0x4F,0x52,0x0,0x36,0x2E,0x54,0x45
0001c2 5453
0001c3 4920
0001c4 2052
0001c5 2020      	.DB  0x53,0x54,0x20,0x49,0x52,0x20,0x20,0x20
0001c6 3700
0001c7 542e
0001c8 5345
0001c9 2054      	.DB  0x0,0x37,0x2E,0x54,0x45,0x53,0x54,0x20
0001ca 4652
0001cb 2020
0001cc 0020
0001cd 2e38      	.DB  0x52,0x46,0x20,0x20,0x20,0x0,0x38,0x2E
0001ce 4554
0001cf 5453
0001d0 5520
0001d1 5241      	.DB  0x54,0x45,0x53,0x54,0x20,0x55,0x41,0x52
0001d2 2054
0001d3 3900
0001d4 522e
0001d5 2043      	.DB  0x54,0x20,0x0,0x39,0x2E,0x52,0x43,0x20
0001d6 4553
0001d7 5652
0001d8 204f
0001d9 3100      	.DB  0x53,0x45,0x52,0x56,0x4F,0x20,0x0,0x31
0001da 2e30
0001db 5055
0001dc 4144
0001dd 4554      	.DB  0x30,0x2E,0x55,0x50,0x44,0x41,0x54,0x45
0001de 5220
0001df 0042
0001e0 6944
0001e1 686e      	.DB  0x20,0x52,0x42,0x0,0x44,0x69,0x6E,0x68
0001e2 4d20
0001e3 6861
0001e4 6e6f
0001e5 0065      	.DB  0x20,0x4D,0x61,0x68,0x6F,0x6E,0x65,0x0
                 _0x2040000:
0001e6 4e2d
0001e7 4e41
E:\Robot_Soccer\phan mem lap trinh robokit\Source Code Robokit\List\AK.asm(1227): warning: .cseg .db misalignment - padding zero byte
0001e8 0000      	.DB  0x2D,0x4E,0x41,0x4E,0x0
                 _0x20A0060:
E:\Robot_Soccer\phan mem lap trinh robokit\Source Code Robokit\List\AK.asm(1229): warning: .cseg .db misalignment - padding zero byte
0001e9 0001      	.DB  0x1
                 _0x20A0000:
0001ea 4e2d
0001eb 4e41
0001ec 4900
0001ed 464e      	.DB  0x2D,0x4E,0x41,0x4E,0x0,0x49,0x4E,0x46
E:\Robot_Soccer\phan mem lap trinh robokit\Source Code Robokit\List\AK.asm(1232): warning: .cseg .db misalignment - padding zero byte
0001ee 0000      	.DB  0x0
                 
                 __GLOBAL_INI_TBL:
0001ef 0001      	.DW  0x01
0001f0 0002      	.DW  0x02
0001f1 0234      	.DW  __REG_BIT_VARS*2
                 
0001f2 0005      	.DW  0x05
0001f3 03c4      	.DW  _TX_ADDRESS
0001f4 0236      	.DW  _0x3*2
                 
0001f5 0005      	.DW  0x05
0001f6 03c9      	.DW  _RX_ADDRESS
0001f7 023c      	.DW  _0x4*2
                 
0001f8 0001      	.DW  0x01
0001f9 051a      	.DW  _id
0001fa 0242      	.DW  _0x20003*2
                 
0001fb 0001      	.DW  0x01
0001fc 0545      	.DW  _KpR
0001fd 0244      	.DW  _0x20004*2
                 
0001fe 0001      	.DW  0x01
0001ff 0547      	.DW  _KiR
000200 0246      	.DW  _0x20005*2
                 
000201 0001      	.DW  0x01
000202 0549      	.DW  _KpL
000203 0248      	.DW  _0x20006*2
                 
000204 0001      	.DW  0x01
000205 054b      	.DW  _KiL
000206 024a      	.DW  _0x20007*2
                 
000207 000c      	.DW  0x0C
000208 0260      	.DW  _0x20044
000209 0295      	.DW  _0x20000*2+9
                 
00020a 000b      	.DW  0x0B
00020b 026c      	.DW  _0x2017A
00020c 02a1      	.DW  _0x20000*2+21
                 
00020d 000b      	.DW  0x0B
00020e 0277      	.DW  _0x2018F
00020f 02ac      	.DW  _0x20000*2+32
                 
000210 0008      	.DW  0x08
000211 0282      	.DW  _0x2018F+11
000212 02b7      	.DW  _0x20000*2+43
                 
000213 000b      	.DW  0x0B
000214 028a      	.DW  _0x201C2
000215 02bf      	.DW  _0x20000*2+51
                 
000216 0008      	.DW  0x08
000217 0295      	.DW  _0x201C2+11
000218 02b7      	.DW  _0x20000*2+43
                 
000219 000a      	.DW  0x0A
00021a 029d      	.DW  _0x20210
00021b 02ca      	.DW  _0x20000*2+62
                 
00021c 0006      	.DW  0x06
00021d 02a7      	.DW  _0x20210+10
00021e 02d4      	.DW  _0x20000*2+72
                 
00021f 000b      	.DW  0x0B
000220 02ad      	.DW  _0x20227
000221 02da      	.DW  _0x20000*2+78
                 
000222 0007      	.DW  0x07
000223 02b8      	.DW  _0x20227+11
000224 02e5      	.DW  _0x20000*2+89
                 
000225 0007      	.DW  0x07
000226 02bf      	.DW  _0x20227+18
000227 02ec      	.DW  _0x20000*2+96
                 
000228 000a      	.DW  0x0A
000229 02c6      	.DW  _0x2022C
00022a 02f3      	.DW  _0x20000*2+103
                 
00022b 0008      	.DW  0x08
00022c 02d0      	.DW  _0x2022D
00022d 02fd      	.DW  _0x20000*2+113
                 
00022e 0003      	.DW  0x03
00022f 02d8      	.DW  _0x2022D+8
000230 0305      	.DW  _0x20000*2+121
                 
000231 0003      	.DW  0x03
000232 02db      	.DW  _0x2022D+11
000233 0308      	.DW  _0x20000*2+124
                 
000234 0003      	.DW  0x03
000235 02de      	.DW  _0x2022D+14
000236 030b      	.DW  _0x20000*2+127
                 
000237 0003      	.DW  0x03
000238 02e1      	.DW  _0x2022D+17
000239 030e      	.DW  _0x20000*2+130
                 
00023a 0003      	.DW  0x03
00023b 02e4      	.DW  _0x2022D+20
00023c 0311      	.DW  _0x20000*2+133
                 
00023d 0003      	.DW  0x03
00023e 02e7      	.DW  _0x2022D+23
00023f 0314      	.DW  _0x20000*2+136
                 
000240 0003      	.DW  0x03
000241 02ea      	.DW  _0x2022D+26
000242 0317      	.DW  _0x20000*2+139
                 
000243 0003      	.DW  0x03
000244 02ed      	.DW  _0x2022D+29
000245 031a      	.DW  _0x20000*2+142
                 
000246 000c      	.DW  0x0C
000247 02f0      	.DW  _0x20231
000248 031d      	.DW  _0x20000*2+145
                 
000249 000d      	.DW  0x0D
00024a 02fc      	.DW  _0x20231+12
00024b 0329      	.DW  _0x20000*2+157
                 
00024c 0009      	.DW  0x09
00024d 0309      	.DW  _0x2029A
00024e 0336      	.DW  _0x20000*2+170
                 
00024f 000d      	.DW  0x0D
000250 0312      	.DW  _0x202A6
000251 033f      	.DW  _0x20000*2+179
                 
000252 000d      	.DW  0x0D
000253 031f      	.DW  _0x202A6+13
000254 033f      	.DW  _0x20000*2+179
                 
000255 000d      	.DW  0x0D
000256 032c      	.DW  _0x202A6+26
000257 034c      	.DW  _0x20000*2+192
                 
000258 000d      	.DW  0x0D
000259 0339      	.DW  _0x202A6+39
00025a 0359      	.DW  _0x20000*2+205
                 
00025b 000d      	.DW  0x0D
00025c 0346      	.DW  _0x202A6+52
00025d 0366      	.DW  _0x20000*2+218
                 
00025e 000d      	.DW  0x0D
00025f 0353      	.DW  _0x202A6+65
000260 0373      	.DW  _0x20000*2+231
                 
000261 000d      	.DW  0x0D
000262 0360      	.DW  _0x202A6+78
000263 0380      	.DW  _0x20000*2+244
                 
000264 000d      	.DW  0x0D
000265 036d      	.DW  _0x202A6+91
000266 038d      	.DW  _0x20000*2+257
                 
000267 000d      	.DW  0x0D
000268 037a      	.DW  _0x202A6+104
000269 039a      	.DW  _0x20000*2+270
                 
00026a 000c      	.DW  0x0C
00026b 0387      	.DW  _0x202A6+117
00026c 03a7      	.DW  _0x20000*2+283
                 
00026d 000d      	.DW  0x0D
00026e 0393      	.DW  _0x202A6+129
00026f 03b3      	.DW  _0x20000*2+295
                 
000270 000b      	.DW  0x0B
000271 03a0      	.DW  _0x202D2
000272 0296      	.DW  _0x20000*2+10
                 
000273 000d      	.DW  0x0D
000274 03ab      	.DW  _0x202D2+11
000275 0329      	.DW  _0x20000*2+157
                 
000276 000c      	.DW  0x0C
000277 03b8      	.DW  _0x202D2+24
000278 03c0      	.DW  _0x20000*2+308
                 
000279 0006      	.DW  0x06
00027a 0004      	.DW  0x04
00027b 0286      	.DW  _0x202F3*2
                 
00027c 0001      	.DW  0x01
00027d 0579      	.DW  __seed_G105
00027e 03d2      	.DW  _0x20A0060*2
                 
                 _0xFFFFFFFF:
00027f 0000      	.DW  0
                 
                 __RESET:
000280 94f8      	CLI
000281 27ee      	CLR  R30
000282 bbec      	OUT  EECR,R30
                 
                 ;INTERRUPT VECTORS ARE PLACED
                 ;AT THE START OF FLASH
000283 e0f1      	LDI  R31,1
000284 bff5      	OUT  MCUCR,R31
000285 bfe5      	OUT  MCUCR,R30
                 
                 ;DISABLE WATCHDOG
000286 e1f8      	LDI  R31,0x18
000287 bdf1      	OUT  WDTCR,R31
000288 bde1      	OUT  WDTCR,R30
                 
                 ;CLEAR R2-R14
000289 e08d      	LDI  R24,(14-2)+1
00028a e0a2      	LDI  R26,2
00028b 27bb      	CLR  R27
                 __CLEAR_REG:
00028c 93ed      	ST   X+,R30
00028d 958a      	DEC  R24
00028e f7e9      	BRNE __CLEAR_REG
                 
                 ;CLEAR SRAM
00028f e080      	LDI  R24,LOW(__CLEAR_SRAM_SIZE)
000290 e098      	LDI  R25,HIGH(__CLEAR_SRAM_SIZE)
000291 e6a0      	LDI  R26,__SRAM_START
                 __CLEAR_SRAM:
000292 93ed      	ST   X+,R30
000293 9701      	SBIW R24,1
000294 f7e9      	BRNE __CLEAR_SRAM
                 
                 ;GLOBAL VARIABLES INITIALIZATION
000295 edee      	LDI  R30,LOW(__GLOBAL_INI_TBL*2)
000296 e0f3      	LDI  R31,HIGH(__GLOBAL_INI_TBL*2)
                 __GLOBAL_INI_NEXT:
000297 9185      	LPM  R24,Z+
000298 9195      	LPM  R25,Z+
000299 9700      	SBIW R24,0
00029a f061      	BREQ __GLOBAL_INI_END
00029b 91a5      	LPM  R26,Z+
00029c 91b5      	LPM  R27,Z+
00029d 9005      	LPM  R0,Z+
00029e 9015      	LPM  R1,Z+
00029f 01bf      	MOVW R22,R30
0002a0 01f0      	MOVW R30,R0
                 __GLOBAL_INI_LOOP:
0002a1 9005      	LPM  R0,Z+
0002a2 920d      	ST   X+,R0
0002a3 9701      	SBIW R24,1
0002a4 f7e1      	BRNE __GLOBAL_INI_LOOP
0002a5 01fb      	MOVW R30,R22
0002a6 cff0      	RJMP __GLOBAL_INI_NEXT
                 __GLOBAL_INI_END:
                 
                 ;HARDWARE STACK POINTER INITIALIZATION
0002a7 e5ef      	LDI  R30,LOW(__SRAM_END-__HEAP_SIZE)
0002a8 bfed      	OUT  SPL,R30
0002a9 e0e8      	LDI  R30,HIGH(__SRAM_END-__HEAP_SIZE)
0002aa bfee      	OUT  SPH,R30
                 
                 ;DATA STACK POINTER INITIALIZATION
0002ab e6c0      	LDI  R28,LOW(__SRAM_START+__DSTACK_SIZE)
0002ac e0d2      	LDI  R29,HIGH(__SRAM_START+__DSTACK_SIZE)
                 
0002ad 940c 0f44 	JMP  _main
                 
                 	.ESEG
                 	.ORG 0
                 
                 	.DSEG
                 	.ORG 0x260
                 
                 	.CSEG
                 ;#include <mega32a.h>
                 	#ifndef __SLEEP_DEFINED__
                 	#define __SLEEP_DEFINED__
                 	.EQU __se_bit=0x80
                 	.EQU __sm_mask=0x70
                 	.EQU __sm_powerdown=0x20
                 	.EQU __sm_powersave=0x30
                 	.EQU __sm_standby=0x60
                 	.EQU __sm_ext_standby=0x70
                 	.EQU __sm_adc_noise_red=0x10
                 	.SET power_ctrl_reg=mcucr
                 	#endif
                 ;#include <string.h>
                 ;#include <nRF24L01/nRF24L01.h>
                 ;#include <delay.h>
                 ;#include <spi.h>
                 ;
                 ;#define CSN    PORTC.2
                 ;#define CE     PORTC.3
                 ;#define SCK    PORTB.7
                 ;#define MISO   PINB.6
                 ;#define MOSI   PORTB.5
                 ;//********************************************************************************
                 ;//unsigned char const TX_ADDRESS[TX_ADR_WIDTH]= {0x34,0x43,0x10,0x10,0x01};	//
                 ;//unsigned char const RX_ADDRESS[RX_ADR_WIDTH]= {0x34,0x43,0x10,0x10,0x01};	//
                 ;unsigned char const TX_ADDRESS[TX_ADR_WIDTH]= {0xE7,0xE7,0xE7,0xE7,0xE7};	// dia chi phat du lieu
                 
                 	.DSEG
                 ;unsigned char const RX_ADDRESS[RX_ADR_WIDTH]= {0xE7,0xE7,0xE7,0xE7,0xE7};	// dia chi nhan du lieu
                 ;//****************************************************************************************
                 ;//*NRF24L01
                 ;//***************************************************************************************/
                 ;void init_NRF24L01(void)
                 ; 0000 0015 {
                 
                 	.CSEG
                 _init_NRF24L01:
                 ; 0000 0016     //init SPI
                 ; 0000 0017     SPCR=0x51; //set this to 0x50 for 1 mbits
0002af e5e1      	LDI  R30,LOW(81)
0002b0 b9ed      	OUT  0xD,R30
                 ; 0000 0018     SPSR=0x00;
0002b1 e0e0      	LDI  R30,LOW(0)
0002b2 b9ee      	OUT  0xE,R30
                 ; 0000 0019 
                 ; 0000 001A     //inerDelay_us(100);
                 ; 0000 001B     delay_us(100);
                +
0002b3 ec88     +LDI R24 , LOW ( 200 )
0002b4 e090     +LDI R25 , HIGH ( 200 )
                +__DELAY_USW_LOOP :
0002b5 9701     +SBIW R24 , 1
0002b6 f7f1     +BRNE __DELAY_USW_LOOP
                 	__DELAY_USW 200
                 ; 0000 001C  	CE=0;    // chip enable
0002b7 98ab      	CBI  0x15,3
                 ; 0000 001D  	CSN=1;   // Spi disable
0002b8 9aaa      	SBI  0x15,2
                 ; 0000 001E  	//SCK=0;   // Spi clock line init high
                 ; 0000 001F 	SPI_Write_Buf(WRITE_REG + TX_ADDR, TX_ADDRESS, TX_ADR_WIDTH);    //
0002b9 e3e0      	LDI  R30,LOW(48)
0002ba 93ea      	ST   -Y,R30
0002bb ece4      	LDI  R30,LOW(_TX_ADDRESS)
0002bc e0f3      	LDI  R31,HIGH(_TX_ADDRESS)
0002bd 940e 1047 	CALL SUBOPT_0x0
                 ; 0000 0020 	SPI_Write_Buf(WRITE_REG + RX_ADDR_P0, RX_ADDRESS, RX_ADR_WIDTH); //
0002bf e2ea      	LDI  R30,LOW(42)
0002c0 93ea      	ST   -Y,R30
0002c1 ece9      	LDI  R30,LOW(_RX_ADDRESS)
0002c2 e0f3      	LDI  R31,HIGH(_RX_ADDRESS)
0002c3 940e 1047 	CALL SUBOPT_0x0
                 ; 0000 0021 	SPI_RW_Reg(WRITE_REG + EN_AA, 0x00);      // EN P0, 2-->P1
0002c5 e2e1      	LDI  R30,LOW(33)
0002c6 93ea      	ST   -Y,R30
0002c7 e0e0      	LDI  R30,LOW(0)
0002c8 93ea      	ST   -Y,R30
0002c9 d02c      	RCALL _SPI_RW_Reg
                 ; 0000 0022 	SPI_RW_Reg(WRITE_REG + EN_RXADDR, 0x01);  //Enable data P0
0002ca e2e2      	LDI  R30,LOW(34)
0002cb 93ea      	ST   -Y,R30
0002cc e0e1      	LDI  R30,LOW(1)
0002cd 93ea      	ST   -Y,R30
0002ce d027      	RCALL _SPI_RW_Reg
                 ; 0000 0023 	SPI_RW_Reg(WRITE_REG + RF_CH, 2);        // Chanel 0 RF = 2400 + RF_CH* (1or 2 M)
0002cf e2e5      	LDI  R30,LOW(37)
0002d0 93ea      	ST   -Y,R30
0002d1 e0e2      	LDI  R30,LOW(2)
0002d2 93ea      	ST   -Y,R30
0002d3 d022      	RCALL _SPI_RW_Reg
                 ; 0000 0024 	SPI_RW_Reg(WRITE_REG + RX_PW_P0, RX_PLOAD_WIDTH); // Do rong data truyen 32 byte
0002d4 e3e1      	LDI  R30,LOW(49)
0002d5 93ea      	ST   -Y,R30
0002d6 e2e0      	LDI  R30,LOW(32)
0002d7 93ea      	ST   -Y,R30
0002d8 d01d      	RCALL _SPI_RW_Reg
                 ; 0000 0025 	SPI_RW_Reg(WRITE_REG + RF_SETUP, 0x07);   		// 1M, 0dbm
0002d9 e2e6      	LDI  R30,LOW(38)
0002da 93ea      	ST   -Y,R30
0002db e0e7      	LDI  R30,LOW(7)
0002dc 93ea      	ST   -Y,R30
0002dd d018      	RCALL _SPI_RW_Reg
                 ; 0000 0026 	SPI_RW_Reg(WRITE_REG + CONFIG, 0x0e);   		 // Enable CRC, 2 byte CRC, Send
0002de e2e0      	LDI  R30,LOW(32)
0002df 93ea      	ST   -Y,R30
0002e0 e0ee      	LDI  R30,LOW(14)
0002e1 93ea      	ST   -Y,R30
0002e2 d013      	RCALL _SPI_RW_Reg
                 ; 0000 0027 
                 ; 0000 0028 }
0002e3 9508      	RET
                 ;/****************************************************************************************************/
                 ;//unsigned char SPI_RW(unsigned char Buff)
                 ;//NRF24L01
                 ;/****************************************************************************************************/
                 ;unsigned char SPI_RW(unsigned char Buff)
                 ; 0000 002E {
                 _SPI_RW:
                 ; 0000 002F    return spi(Buff);
                 ;	Buff -> Y+0
0002e4 81e8      	LD   R30,Y
0002e5 93ea      	ST   -Y,R30
0002e6 940e 0fb1 	CALL _spi
0002e8 940c 0535 	JMP  _0x20C0007
                 ; 0000 0030 }
                 ;/****************************************************************************************************/
                 ;//unsigned char SPI_Read(unsigned char reg)
                 ;//NRF24L01
                 ;/****************************************************************************************************/
                 ;unsigned char SPI_Read(unsigned char reg)
                 ; 0000 0036 {
                 _SPI_Read:
                 ; 0000 0037 	unsigned char reg_val;
                 ; 0000 0038 
                 ; 0000 0039 	CSN = 0;                // CSN low, initialize SPI communication...
0002ea 931a      	ST   -Y,R17
                 ;	reg -> Y+1
                 ;	reg_val -> R17
0002eb 98aa      	CBI  0x15,2
                 ; 0000 003A 	SPI_RW(reg);            // Select register to read from..
0002ec 81e9      	LDD  R30,Y+1
0002ed 93ea      	ST   -Y,R30
0002ee dff5      	RCALL _SPI_RW
                 ; 0000 003B 	reg_val = SPI_RW(0);    // ..then read registervalue
0002ef e0e0      	LDI  R30,LOW(0)
0002f0 940e 104f 	CALL SUBOPT_0x1
                 ; 0000 003C 	CSN = 1;                // CSN high, terminate SPI communication
0002f2 9aaa      	SBI  0x15,2
                 ; 0000 003D 
                 ; 0000 003E 	return(reg_val);        // return register value
0002f3 2fe1      	MOV  R30,R17
0002f4 8118      	LDD  R17,Y+0
0002f5 c146      	RJMP _0x20C0008
                 ; 0000 003F }
                 ;/****************************************************************************************************/
                 ;//unsigned char SPI_RW_Reg(unsigned char reg, unsigned char value)
                 ;/****************************************************************************************************/
                 ;unsigned char SPI_RW_Reg(unsigned char reg, unsigned char value)
                 ; 0000 0044 {
                 _SPI_RW_Reg:
                 ; 0000 0045 	unsigned char status;
                 ; 0000 0046 
                 ; 0000 0047 	CSN = 0;                   // CSN low, init SPI transaction
0002f6 931a      	ST   -Y,R17
                 ;	reg -> Y+2
                 ;	value -> Y+1
                 ;	status -> R17
0002f7 98aa      	CBI  0x15,2
                 ; 0000 0048 	status = SPI_RW(reg);      // select register
0002f8 81ea      	LDD  R30,Y+2
0002f9 940e 104f 	CALL SUBOPT_0x1
                 ; 0000 0049 	SPI_RW(value);             // ..and write value to it..
0002fb 81e9      	LDD  R30,Y+1
0002fc 93ea      	ST   -Y,R30
0002fd dfe6      	RCALL _SPI_RW
                 ; 0000 004A 	CSN = 1;                   // CSN high again
0002fe 9aaa      	SBI  0x15,2
                 ; 0000 004B 
                 ; 0000 004C 	return(status);            // return nRF24L01 status uchar
0002ff 2fe1      	MOV  R30,R17
000300 8118      	LDD  R17,Y+0
000301 c0ac      	RJMP _0x20C000B
                 ; 0000 004D }
                 ;/****************************************************************************************************/
                 ;//unsigned char SPI_Read_Buf(unsigned char reg, unsigned char *pBuf, unsigned char uchars)
                 ;//
                 ;/****************************************************************************************************/
                 ;unsigned char SPI_Read_Buf(unsigned char reg, unsigned char *pBuf, unsigned char uchars)
                 ; 0000 0053 {
                 _SPI_Read_Buf:
                 ; 0000 0054 	unsigned char status,uchar_ctr;
                 ; 0000 0055 
                 ; 0000 0056 	CSN = 0;                    		// Set CSN low, init SPI tranaction
000302 931a      	ST   -Y,R17
000303 930a      	ST   -Y,R16
                 ;	reg -> Y+5
                 ;	*pBuf -> Y+3
                 ;	uchars -> Y+2
                 ;	status -> R17
                 ;	uchar_ctr -> R16
000304 98aa      	CBI  0x15,2
                 ; 0000 0057 	status = SPI_RW(reg);       		// Select register to write to and read status uchar
000305 81ed      	LDD  R30,Y+5
000306 940e 104f 	CALL SUBOPT_0x1
                 ; 0000 0058 
                 ; 0000 0059 	for(uchar_ctr=0;uchar_ctr<uchars;uchar_ctr++)
000308 e000      	LDI  R16,LOW(0)
                 _0x14:
000309 81ea      	LDD  R30,Y+2
00030a 170e      	CP   R16,R30
00030b f480      	BRSH _0x15
                 ; 0000 005A 		pBuf[uchar_ctr] = SPI_RW(0);    //
00030c 2fe0      	MOV  R30,R16
00030d 81ab      	LDD  R26,Y+3
00030e 81bc      	LDD  R27,Y+3+1
00030f e0f0      	LDI  R31,0
000310 0fea      	ADD  R30,R26
000311 1ffb      	ADC  R31,R27
000312 93ff      	PUSH R31
000313 93ef      	PUSH R30
000314 e0e0      	LDI  R30,LOW(0)
000315 93ea      	ST   -Y,R30
000316 dfcd      	RCALL _SPI_RW
000317 91af      	POP  R26
000318 91bf      	POP  R27
000319 93ec      	ST   X,R30
00031a 5f0f      	SUBI R16,-1
00031b cfed      	RJMP _0x14
                 _0x15:
                 ; 0000 005C PORTC.2 = 1;
00031c 9aaa      	SBI  0x15,2
                 ; 0000 005D 
                 ; 0000 005E 	return(status);                    // return nRF24L01 status uchar
00031d 2fe1      	MOV  R30,R17
00031e 8119      	LDD  R17,Y+1
00031f 8108      	LDD  R16,Y+0
000320 9626      	ADIW R28,6
000321 9508      	RET
                 ; 0000 005F }
                 ;/*********************************************************************************************************/
                 ;//uint SPI_Write_Buf(uchar reg, uchar *pBuf, uchar uchars)
                 ;/*****************************************************************************************************/
                 ;unsigned char SPI_Write_Buf(unsigned char reg, unsigned char *pBuf, unsigned uchars)
                 ; 0000 0064 {
                 _SPI_Write_Buf:
                 ; 0000 0065 	unsigned char status,uchar_ctr;
                 ; 0000 0066 	CSN = 0;            //SPI
000322 931a      	ST   -Y,R17
000323 930a      	ST   -Y,R16
                 ;	reg -> Y+6
                 ;	*pBuf -> Y+4
                 ;	uchars -> Y+2
                 ;	status -> R17
                 ;	uchar_ctr -> R16
000324 98aa      	CBI  0x15,2
                 ; 0000 0067 	status = SPI_RW(reg);
000325 81ee      	LDD  R30,Y+6
000326 940e 104f 	CALL SUBOPT_0x1
                 ; 0000 0068 	for(uchar_ctr=0; uchar_ctr<uchars; uchar_ctr++) //
000328 e000      	LDI  R16,LOW(0)
                 _0x1B:
000329 81ea      	LDD  R30,Y+2
00032a 81fb      	LDD  R31,Y+2+1
00032b 2fa0      	MOV  R26,R16
00032c e0b0      	LDI  R27,0
00032d 17ae      	CP   R26,R30
00032e 07bf      	CPC  R27,R31
00032f f448      	BRSH _0x1C
                 ; 0000 0069 	SPI_RW(*pBuf++);
000330 81ac      	LDD  R26,Y+4
000331 81bd      	LDD  R27,Y+4+1
000332 91ed      	LD   R30,X+
000333 83ac      	STD  Y+4,R26
000334 83bd      	STD  Y+4+1,R27
000335 93ea      	ST   -Y,R30
000336 dfad      	RCALL _SPI_RW
000337 5f0f      	SUBI R16,-1
000338 cff0      	RJMP _0x1B
                 _0x1C:
                 ; 0000 006A PORTC.2 = 1;
000339 9aaa      	SBI  0x15,2
                 ; 0000 006B 	return(status);    //
00033a 2fe1      	MOV  R30,R17
00033b 8119      	LDD  R17,Y+1
00033c 8108      	LDD  R16,Y+0
00033d 9627      	ADIW R28,7
00033e 9508      	RET
                 ; 0000 006C }
                 ;/****************************************************************************************************/
                 ;//void SetRX_Mode(void)
                 ;//
                 ;/****************************************************************************************************/
                 ;void SetRX_Mode(void)
                 ; 0000 0072 {
                 _SetRX_Mode:
                 ; 0000 0073 	CE=0;
00033f 98ab      	CBI  0x15,3
                 ; 0000 0074 	SPI_RW_Reg(WRITE_REG + CONFIG, 0x07);   		// enable power up and prx
000340 e2e0      	LDI  R30,LOW(32)
000341 93ea      	ST   -Y,R30
000342 e0e7      	LDI  R30,LOW(7)
000343 93ea      	ST   -Y,R30
000344 dfb1      	RCALL _SPI_RW_Reg
                 ; 0000 0075 	CE = 1;
000345 9aab      	SBI  0x15,3
                 ; 0000 0076 	delay_us(130);    //
                +
000346 e084     +LDI R24 , LOW ( 260 )
000347 e091     +LDI R25 , HIGH ( 260 )
                +__DELAY_USW_LOOP :
000348 9701     +SBIW R24 , 1
000349 f7f1     +BRNE __DELAY_USW_LOOP
                 	__DELAY_USW 260
                 ; 0000 0077 }
00034a 9508      	RET
                 ;/****************************************************************************************************/
                 ;//void SetTX_Mode(void)
                 ;//
                 ;/****************************************************************************************************/
                 ;void SetTX_Mode(void)
                 ; 0000 007D {
                 ; 0000 007E 	CE=0;
                 ; 0000 007F 	SPI_RW_Reg(WRITE_REG + CONFIG, 0x0e);   		// Enable CRC, 2 byte CRC, Send
                 ; 0000 0080 	CE = 1;
                 ; 0000 0081 	delay_us(130);    //
                 ; 0000 0082 }
                 ;
                 ;/******************************************************************************************************/
                 ;//unsigned char nRF24L01_RxPacket(unsigned char* rx_buf)
                 ;/******************************************************************************************************/
                 ;unsigned char nRF24L01_RxPacket(unsigned char* rx_buf)
                 ; 0000 0088 {
                 _nRF24L01_RxPacket:
                 ; 0000 0089     unsigned char revale=0;
                 ; 0000 008A     unsigned char sta;
                 ; 0000 008B 	sta=SPI_Read(STATUS);	// Read Status
00034b 931a      	ST   -Y,R17
00034c 930a      	ST   -Y,R16
                 ;	*rx_buf -> Y+2
                 ;	revale -> R17
                 ;	sta -> R16
00034d e010      	LDI  R17,0
00034e e0e7      	LDI  R30,LOW(7)
00034f 93ea      	ST   -Y,R30
000350 df99      	RCALL _SPI_Read
000351 2f0e      	MOV  R16,R30
                 ; 0000 008C 	//if(RX_DR)				// Data in RX FIFO
                 ; 0000 008D     if((sta&0x40)!=0)		// Data in RX FIFO
000352 ff06      	SBRS R16,6
000353 c00b      	RJMP _0x27
                 ; 0000 008E 	{
                 ; 0000 008F 	    CE = 0; 			//SPI
000354 98ab      	CBI  0x15,3
                 ; 0000 0090 		SPI_Read_Buf(RD_RX_PLOAD,rx_buf,TX_PLOAD_WIDTH);// read receive payload from RX_FIFO buffer
000355 e6e1      	LDI  R30,LOW(97)
000356 93ea      	ST   -Y,R30
000357 81eb      	LDD  R30,Y+3
000358 81fc      	LDD  R31,Y+3+1
000359 93fa      	ST   -Y,R31
00035a 93ea      	ST   -Y,R30
00035b e2e0      	LDI  R30,LOW(32)
00035c 93ea      	ST   -Y,R30
00035d dfa4      	RCALL _SPI_Read_Buf
                 ; 0000 0091 		revale =1;
00035e e011      	LDI  R17,LOW(1)
                 ; 0000 0092 	}
                 ; 0000 0093 	SPI_RW_Reg(WRITE_REG+STATUS,sta);
                 _0x27:
00035f e2e7      	LDI  R30,LOW(39)
000360 93ea      	ST   -Y,R30
000361 930a      	ST   -Y,R16
000362 df93      	RCALL _SPI_RW_Reg
                 ; 0000 0094     CE = 1; 			//SPI
000363 9aab      	SBI  0x15,3
                 ; 0000 0095 	return revale;
000364 2fe1      	MOV  R30,R17
000365 8119      	LDD  R17,Y+1
000366 8108      	LDD  R16,Y+0
000367 940c 089f 	JMP  _0x20C0004
                 ; 0000 0096 }
                 ;/***********************************************************************************************************/
                 ;//void nRF24L01_TxPacket(unsigned char * tx_buf)
                 ;//
                 ;/**********************************************************************************************************/
                 ;void nRF24L01_TxPacket(unsigned char * tx_buf)
                 ; 0000 009C {
                 ; 0000 009D 	CE=0;
                 ;	*tx_buf -> Y+0
                 ; 0000 009E 	SPI_Write_Buf(WRITE_REG + RX_ADDR_P0, TX_ADDRESS, TX_ADR_WIDTH); // Send Address
                 ; 0000 009F 	SPI_Write_Buf(WR_TX_PLOAD, tx_buf, TX_PLOAD_WIDTH); 			 //send data
                 ; 0000 00A0 	SPI_RW_Reg(WRITE_REG + CONFIG, 0x0e);   		 // Send Out
                 ; 0000 00A1 	CE=1;
                 ; 0000 00A2 }
                 ;
                 ;// --------------------END OF FILE------------------------
                 ;// -------------------------------------------------------
                 ;/*****************************************************
                 ;This program was produced by the
                 ;CodeWizardAVR V2.05.0 Evaluation
                 ;Automatic Program Generator
                 ; Copyright 1998-2010 Pavel Haiduc, HP InfoTech s.r.l.
                 ;http://www.hpinfotech.com
                 ;
                 ;Project :
                 ;Version :
                 ;Date    : 6/4/2015
                 ;Author  : Freeware, for evaluation and non-commercial use only
                 ;Company :
                 ;Comments:
                 ;
                 ;
                 ;Chip type               : ATmega32A
                 ;Program type            : Application
                 ;AVR Core Clock frequency: 8.000000 MHz
                 ;Memory model            : Small
                 ;External RAM size       : 0
                 ;Data Stack size         : 512
                 ;*****************************************************/
                 ;#include "stdio.h"
                 ;#include <string.h>
                 ;#include <stdarg.h>
                 ;#include <mega32a.h>
                 	#ifndef __SLEEP_DEFINED__
                 	#endif
                 ;#include <delay.h>
                 ;#include <spi.h>
                 ;#include <nRF24L01/nRF24L01.h>
                 ;#include "math.h"
                 ;
                 ;// PIN LED ROBO KIT
                 ;#define LEDL   PORTC.4
                 ;#define LEDR   PORTC.5
                 ;
                 ;#define LEDFL   PORTA.4
                 ;#define LEDFR   PORTA.5
                 ;#define LEDBL   PORTA.6
                 ;#define LEDBR   PORTA.7
                 ;
                 ;#define keyKT   PINC.0 // Nut ben trai
                 ;#define keyKP   PINC.1 // Nut ben phai
                 ;
                 ;#define S0  PINA.0
                 ;#define S1  PINA.1
                 ;#define S2  PINA.2
                 ;#define S3  PINA.3
                 ;#define S4  PINA.7
                 ;
                 ;#define MLdir   PORTC.6
                 ;#define MRdir   PORTC.7
                 ;// PIN NOKIA 5110
                 ;#define RST    PORTB.0
                 ;#define SCE    PORTB.1
                 ;#define DC     PORTB.2
                 ;
                 ;#define DIN    PORTB.5
                 ;#define SCK    PORTB.7
                 ;
                 ;
                 ;#define LCD_C     0
                 ;#define LCD_D     1
                 ;
                 ;#define LCD_X     84
                 ;#define LCD_Y     48
                 ;
                 ;#define Black 1
                 ;#define White 0
                 ;#define Filled 1
                 ;#define NotFilled 0
                 ;
                 ;
                 ;//===========================================bien cho vi tri robot
                 ;#define CtrVelocity    //uncomment de  chon chay pid dieu khien van toc, va su dung cac ham vMLtoi,vMLlui,....
                 ;#define ROBOT_ID 5
                 ;//#define SAN_ID -1 //CHON HUONG TAN CONG LA X <0;
                 ;#define SAN_ID 1  //CHON HUONG TAN CONG LA X >0;
                 ; //PHUC ID
                 ;
                 ;/*    Kieu So Nguyen Co Dau    */
                 ;typedef   signed          char int8_t;
                 ;typedef   signed 	      int int16_t;
                 ;typedef   signed  long    int int32_t;
                 ;
                 ;/*	Kieu So Nguyen Khong Dau */
                 ;typedef   unsigned         char uint8_t;
                 ;typedef   unsigned 	   int  uint16_t;
                 ;typedef   unsigned long    int  uint32_t;
                 ;/*	Kieu So Thuc */
                 ;typedef   float            float32_t;
                 ;
                 ;#define 	M_PI   3.14159265358979323846	/* pi */
                 ;// Declare your global variables here
                 ;typedef struct   {
                 ;	    float x;
                 ;		float y;
                 ;}Ball ;
                 ;
                 ;
                 ;typedef struct   {
                 ;	    float id;
                 ;	    float x;
                 ;		float y;
                 ;	    float ox;
                 ;        float oy;
                 ;	    Ball ball;
                 ;}robot ;
                 ;
                 ;robot rb,robot11,robot12,robot13,robot21,robot22,robot23,robotctrl;
                 ;float errangle=0, distance=0,orentation=0;
                 ;int flagtancong=1;
                 ;int offsetphongthu=0;
                 ;int goctancong=0;
                 ;unsigned char RxBuf[32];
                 ;unsigned char readposition();
                 ;void runEscBlindSpot();
                 ;void ctrrobot();// can phai luon luon chay de dieu khien robot
                 ;void rb_move(float x,float y);
                 ;int rb_wait(unsigned long int time );
                 ;void rb_rotate(int angle);     // goc xoay so voi truc x cua toa do
                 ;void calcvitri(float x,float y);
                 ;int calcVangle(int angle);
                 ;float setRobotX=0;
                 ;float setRobotY=0;
                 ;float setRobotXmin=0;
                 ;float setRobotXmax=0;
                 ;
                 ;float setRobotAngleX=0;
                 ;float setRobotAngleY=0;
                 ;float offestsanco=0;
                 ;
                 ;float rbctrlHomeX=0;
                 ;float rbctrlHomeY=0;
                 ;float rbctrlPenaltyX=0;
                 ;float rbctrlPenaltyY=0;
                 ;float rbctrlPenaltyAngle=0;
                 ;
                 ;float rbctrlHomeAngle=0;
                 ;
                 ;unsigned int cmdCtrlRobot,idRobot;
                 ;unsigned int cntsethomeRB  =0;
                 ;unsigned int cntstuckRB=0;
                 ;unsigned int cntunlookRB=0;
                 ;unsigned int flagunlookRB=0;
                 ;unsigned int cntunsignalRF=0;
                 ;unsigned int flagunsignalRF=0;
                 ;unsigned int flagsethome=0;
                 ;
                 ;unsigned int flagselftest = 0;
                 ;unsigned int cntselftest = 0;
                 ;// thu su dung bien enum de chuong trinh goi nho hon
                 ;//eeprom enum flagtask   { sunday, monday, tuesday, wednesday,thursday, friday, idle} flagtaskenum;
                 ;//eeprom enum flagctrlrb { movetopoint, movetoball, kick} flagctrlrbenum;
                 ;
                 ;//==========================================================
                 ;//CAC BIEN NGUOI DUNG
                 ; unsigned char id = 1;
                 
                 	.DSEG
                 ;//========================================= bien doc IR
                 ;unsigned int IRFL=0;
                 ;unsigned int IRFR=0;
                 ;unsigned int IRBL=0;
                 ;unsigned int IRLINE[5];
                 ;//========================================= bien dieu khien dong co  PHUC
                 ;   //-----------------------------------------------------
                 ;   //bien dieu khien van toc
                 ;   unsigned int timerstick=0,timerstickdis =0,timerstickang=0,timerstickctr=0;
                 ;   unsigned int vQEL=0;  //do (xung/250ms)
                 ;   unsigned int vQER=0;  //do (xung/250ms)
                 ;   unsigned int oldQEL=0;
                 ;   unsigned int oldQER=0;
                 ;   unsigned int svQEL=0;  //dat (xung/250ms) (range: 0-22)
                 ;   unsigned int svQER=0;  //dat (xung/250ms) (range: 0-22)
                 ;   static int seRki=0,seLki=0;
                 ;   int uL = 0 ;
                 ;   int uR = 0;
                 ;
                 ;   int KpR = 10;
                 ;   int KiR = 1;
                 ;   int KpL = 10;
                 ;   int KiL = 1;
                 ;   //------------------------------------------------------
                 ;   //bien dieu khien vi tri
                 ;   unsigned int sd=0;// dat khoang cach  di chuyen (xung)
                 ;   unsigned int oldd=0;// bien luu gia tri vi tri cu
                 ;   unsigned char flagwaitctrRobot = 0;
                 ;   //bien dieu khien goc
                 ;    unsigned int sa=0;// dat goc quay (xung) ( 54 xung/vong quay)
                 ;    unsigned int olda=0;// bien luu gia tri goc cu
                 ;    unsigned char  flagwaitctrAngle = 0;
                 ;   //bien dieu khien trang thai robot
                 ;   unsigned int flagtask=0;
                 ;   unsigned int flagtaskold=0;
                 ;   unsigned int flaghuongtrue=0;
                 ;   int verranglekisum = 0;
                 ;//========================================= bien doc ENCODER
                 ; unsigned int QEL=0;
                 ; unsigned int QER=0;
                 ;//========================================= bien su dung LCD
                 ; unsigned char menu=0,test=0,ok=0,runing_test=0,run_robot=0,ft=1,timer=0;
                 ;//========================================================
                 ;//========================================================
                 ;
                 ;flash unsigned char ASCII[][5] = {
                 ; {0x00, 0x00, 0x00, 0x00, 0x00} // 20
                 ;,{0x00, 0x00, 0x5f, 0x00, 0x00} // 21 !
                 ;,{0x00, 0x07, 0x00, 0x07, 0x00} // 22 "
                 ;,{0x14, 0x7f, 0x14, 0x7f, 0x14} // 23 #
                 ;,{0x24, 0x2a, 0x7f, 0x2a, 0x12} // 24 $
                 ;,{0x23, 0x13, 0x08, 0x64, 0x62} // 25 %
                 ;,{0x36, 0x49, 0x55, 0x22, 0x50} // 26 &
                 ;,{0x00, 0x05, 0x03, 0x00, 0x00} // 27 '
                 ;,{0x00, 0x1c, 0x22, 0x41, 0x00} // 28 (
                 ;,{0x00, 0x41, 0x22, 0x1c, 0x00} // 29 )
                 ;,{0x14, 0x08, 0x3e, 0x08, 0x14} // 2a *
                 ;,{0x08, 0x08, 0x3e, 0x08, 0x08} // 2b +
                 ;,{0x00, 0x50, 0x30, 0x00, 0x00} // 2c ,
                 ;,{0x08, 0x08, 0x08, 0x08, 0x08} // 2d -
                 ;,{0x00, 0x60, 0x60, 0x00, 0x00} // 2e .
                 ;,{0x20, 0x10, 0x08, 0x04, 0x02} // 2f /
                 ;,{0x3e, 0x51, 0x49, 0x45, 0x3e} // 30 0
                 ;,{0x00, 0x42, 0x7f, 0x40, 0x00} // 31 1
                 ;,{0x42, 0x61, 0x51, 0x49, 0x46} // 32 2
                 ;,{0x21, 0x41, 0x45, 0x4b, 0x31} // 33 3
                 ;,{0x18, 0x14, 0x12, 0x7f, 0x10} // 34 4
                 ;,{0x27, 0x45, 0x45, 0x45, 0x39} // 35 5
                 ;,{0x3c, 0x4a, 0x49, 0x49, 0x30} // 36 6
                 ;,{0x01, 0x71, 0x09, 0x05, 0x03} // 37 7
                 ;,{0x36, 0x49, 0x49, 0x49, 0x36} // 38 8
                 ;,{0x06, 0x49, 0x49, 0x29, 0x1e} // 39 9
                 ;,{0x00, 0x36, 0x36, 0x00, 0x00} // 3a :
                 ;,{0x00, 0x56, 0x36, 0x00, 0x00} // 3b ;
                 ;,{0x08, 0x14, 0x22, 0x41, 0x00} // 3c <
                 ;,{0x14, 0x14, 0x14, 0x14, 0x14} // 3d =
                 ;,{0x00, 0x41, 0x22, 0x14, 0x08} // 3e >
                 ;,{0x02, 0x01, 0x51, 0x09, 0x06} // 3f ?
                 ;,{0x32, 0x49, 0x79, 0x41, 0x3e} // 40 @
                 ;,{0x7e, 0x11, 0x11, 0x11, 0x7e} // 41 A
                 ;,{0x7f, 0x49, 0x49, 0x49, 0x36} // 42 B
                 ;,{0x3e, 0x41, 0x41, 0x41, 0x22} // 43 C
                 ;,{0x7f, 0x41, 0x41, 0x22, 0x1c} // 44 D
                 ;,{0x7f, 0x49, 0x49, 0x49, 0x41} // 45 E
                 ;,{0x7f, 0x09, 0x09, 0x09, 0x01} // 46 F
                 ;,{0x3e, 0x41, 0x49, 0x49, 0x7a} // 47 G
                 ;,{0x7f, 0x08, 0x08, 0x08, 0x7f} // 48 H
                 ;,{0x00, 0x41, 0x7f, 0x41, 0x00} // 49 I
                 ;,{0x20, 0x40, 0x41, 0x3f, 0x01} // 4a J
                 ;,{0x7f, 0x08, 0x14, 0x22, 0x41} // 4b K
                 ;,{0x7f, 0x40, 0x40, 0x40, 0x40} // 4c L
                 ;,{0x7f, 0x02, 0x0c, 0x02, 0x7f} // 4d M
                 ;,{0x7f, 0x04, 0x08, 0x10, 0x7f} // 4e N
                 ;,{0x3e, 0x41, 0x41, 0x41, 0x3e} // 4f O
                 ;,{0x7f, 0x09, 0x09, 0x09, 0x06} // 50 P
                 ;,{0x3e, 0x41, 0x51, 0x21, 0x5e} // 51 Q
                 ;,{0x7f, 0x09, 0x19, 0x29, 0x46} // 52 R
                 ;,{0x46, 0x49, 0x49, 0x49, 0x31} // 53 S
                 ;,{0x01, 0x01, 0x7f, 0x01, 0x01} // 54 T
                 ;,{0x3f, 0x40, 0x40, 0x40, 0x3f} // 55 U
                 ;,{0x1f, 0x20, 0x40, 0x20, 0x1f} // 56 V
                 ;,{0x3f, 0x40, 0x38, 0x40, 0x3f} // 57 W
                 ;,{0x63, 0x14, 0x08, 0x14, 0x63} // 58 X
                 ;,{0x07, 0x08, 0x70, 0x08, 0x07} // 59 Y
                 ;,{0x61, 0x51, 0x49, 0x45, 0x43} // 5a Z
                 ;,{0x00, 0x7f, 0x41, 0x41, 0x00} // 5b [
                 ;,{0x02, 0x04, 0x08, 0x10, 0x20} // 5c 
                 ;,{0x00, 0x41, 0x41, 0x7f, 0x00} // 5d ]
                 ;,{0x04, 0x02, 0x01, 0x02, 0x04} // 5e ^
                 ;,{0x40, 0x40, 0x40, 0x40, 0x40} // 5f _
                 ;,{0x00, 0x01, 0x02, 0x04, 0x00} // 60 `
                 ;,{0x20, 0x54, 0x54, 0x54, 0x78} // 61 a
                 ;,{0x7f, 0x48, 0x44, 0x44, 0x38} // 62 b
                 ;,{0x38, 0x44, 0x44, 0x44, 0x20} // 63 c
                 ;,{0x38, 0x44, 0x44, 0x48, 0x7f} // 64 d
                 ;,{0x38, 0x54, 0x54, 0x54, 0x18} // 65 e
                 ;,{0x08, 0x7e, 0x09, 0x01, 0x02} // 66 f
                 ;,{0x0c, 0x52, 0x52, 0x52, 0x3e} // 67 g
                 ;,{0x7f, 0x08, 0x04, 0x04, 0x78} // 68 h
                 ;,{0x00, 0x44, 0x7d, 0x40, 0x00} // 69 i
                 ;,{0x20, 0x40, 0x44, 0x3d, 0x00} // 6a j
                 ;,{0x7f, 0x10, 0x28, 0x44, 0x00} // 6b k
                 ;,{0x00, 0x41, 0x7f, 0x40, 0x00} // 6c l
                 ;,{0x7c, 0x04, 0x18, 0x04, 0x78} // 6d m
                 ;,{0x7c, 0x08, 0x04, 0x04, 0x78} // 6e n
                 ;,{0x38, 0x44, 0x44, 0x44, 0x38} // 6f o
                 ;,{0x7c, 0x14, 0x14, 0x14, 0x08} // 70 p
                 ;,{0x08, 0x14, 0x14, 0x18, 0x7c} // 71 q
                 ;,{0x7c, 0x08, 0x04, 0x04, 0x08} // 72 r
                 ;,{0x48, 0x54, 0x54, 0x54, 0x20} // 73 s
                 ;,{0x04, 0x3f, 0x44, 0x40, 0x20} // 74 t
                 ;,{0x3c, 0x40, 0x40, 0x20, 0x7c} // 75 u
                 ;,{0x1c, 0x20, 0x40, 0x20, 0x1c} // 76 v
                 ;,{0x3c, 0x40, 0x30, 0x40, 0x3c} // 77 w
                 ;,{0x44, 0x28, 0x10, 0x28, 0x44} // 78 x
                 ;,{0x0c, 0x50, 0x50, 0x50, 0x3c} // 79 y
                 ;,{0x44, 0x64, 0x54, 0x4c, 0x44} // 7a z
                 ;,{0x00, 0x08, 0x36, 0x41, 0x00} // 7b {
                 ;,{0x00, 0x00, 0x7f, 0x00, 0x00} // 7c |
                 ;,{0x00, 0x41, 0x36, 0x08, 0x00} // 7d }
                 ;,{0x10, 0x08, 0x08, 0x10, 0x08} // 7e ?
                 ;,{0x78, 0x46, 0x41, 0x46, 0x78} // 7f ?
                 ;};
                 ;
                 ;//=========================================================
                 ;void LEDLtoggle()
                 ; 0001 0130 {
                 
                 	.CSEG
                 _LEDLtoggle:
                 ; 0001 0131    if(LEDL==0){LEDL=1;}else{LEDL=0;}
000369 99ac      	SBIC 0x15,4
00036a c002      	RJMP _0x20009
00036b 9aac      	SBI  0x15,4
00036c c001      	RJMP _0x2000C
                 _0x20009:
00036d 98ac      	CBI  0x15,4
                 _0x2000C:
                 ; 0001 0132 }
00036e 9508      	RET
                 ;//=========================================================
                 ;void LEDRtoggle()
                 ; 0001 0135 {
                 _LEDRtoggle:
                 ; 0001 0136    if(LEDR==0){LEDR=1;}else{LEDR=0;}
00036f 99ad      	SBIC 0x15,5
000370 c002      	RJMP _0x2000F
000371 9aad      	SBI  0x15,5
000372 c001      	RJMP _0x20012
                 _0x2000F:
000373 98ad      	CBI  0x15,5
                 _0x20012:
                 ; 0001 0137 }
000374 9508      	RET
                 ;//=========================================================
                 ;// truyen spi master
                 ;void spitx(unsigned char temtx)
                 ; 0001 013B {
                 _spitx:
                 ; 0001 013C // unsigned char transpi;
                 ; 0001 013D  SPDR = temtx;
                 ;	temtx -> Y+0
000375 81e8      	LD   R30,Y
000376 b9ef      	OUT  0xF,R30
                 ; 0001 013E  while (!(SPSR & 0x80));
                 _0x20015:
000377 9b77      	SBIS 0xE,7
000378 cffe      	RJMP _0x20015
                 ; 0001 013F }
000379 c1bb      	RJMP _0x20C0007
                 ;
                 ;void LcdWrite(unsigned char dc, unsigned char data)
                 ; 0001 0142 {
                 _LcdWrite:
                 ; 0001 0143     DC = dc;
                 ;	dc -> Y+1
                 ;	data -> Y+0
00037a 81e9      	LDD  R30,Y+1
00037b 30e0      	CPI  R30,0
00037c f411      	BRNE _0x20018
00037d 98c2      	CBI  0x18,2
00037e c001      	RJMP _0x20019
                 _0x20018:
00037f 9ac2      	SBI  0x18,2
                 _0x20019:
                 ; 0001 0144     SCE=1;
000380 9ac1      	SBI  0x18,1
                 ; 0001 0145     SCE=0;
000381 98c1      	CBI  0x18,1
                 ; 0001 0146     spitx(data);
000382 81e8      	LD   R30,Y
000383 93ea      	ST   -Y,R30
000384 dff0      	RCALL _spitx
                 ; 0001 0147     SCE=1;
000385 9ac1      	SBI  0x18,1
                 ; 0001 0148 }
000386 c0b5      	RJMP _0x20C0008
                 ;//This takes a large array of bits and sends them to the LCD
                 ;void LcdBitmap(char my_array[]){
                 ; 0001 014A void LcdBitmap(char my_array[]){
                 ; 0001 014B   int index = 0;
                 ; 0001 014C   for (index = 0 ; index < (LCD_X * LCD_Y / 8) ; index++)
                 ;	my_array -> Y+2
                 ;	index -> R16,R17
                 ; 0001 014D     LcdWrite(LCD_D, my_array[index]);
                 ; 0001 014E }
                 ;
                 ;void hc(int x, int y) {
                 ; 0001 0150 void hc(int x, int y) {
                 _hc:
                 ; 0001 0151   LcdWrite(0, 0x40 | x);  // Row.  ?
                 ;	x -> Y+2
                 ;	y -> Y+0
000387 e0e0      	LDI  R30,LOW(0)
000388 93ea      	ST   -Y,R30
000389 81eb      	LDD  R30,Y+3
00038a 64e0      	ORI  R30,0x40
00038b 940e 1054 	CALL SUBOPT_0x2
                 ; 0001 0152   LcdWrite(0, 0x80 | y);  // Column.
00038d 81e9      	LDD  R30,Y+1
00038e 68e0      	ORI  R30,0x80
00038f 93ea      	ST   -Y,R30
000390 dfe9      	RCALL _LcdWrite
                 ; 0001 0153 }
000391 c50d      	RJMP _0x20C0004
                 ;
                 ;void LcdCharacter(unsigned char character)
                 ; 0001 0156 {
                 _LcdCharacter:
                 ; 0001 0157   int index = 0;
                 ; 0001 0158   LcdWrite(LCD_D, 0x00);
000392 940e 105a 	CALL SUBOPT_0x3
                 ;	character -> Y+2
                 ;	index -> R16,R17
                 ; 0001 0159   for (index = 0; index < 5; index++)
                 _0x20024:
                +
000394 3005     +CPI R16 , LOW ( 5 )
000395 e0e0     +LDI R30 , HIGH ( 5 )
000396 071e     +CPC R17 , R30
                 	__CPWRN 16,17,5
000397 f42c      	BRGE _0x20025
                 ; 0001 015A   {
                 ; 0001 015B     LcdWrite(LCD_D, ASCII[character - 0x20][index]);
000398 940e 1067 	CALL SUBOPT_0x4
                 ; 0001 015C   }
                +
00039a 5f0f     +SUBI R16 , LOW ( - 1 )
00039b 4f1f     +SBCI R17 , HIGH ( - 1 )
                 	__ADDWRN 16,17,1
00039c cff7      	RJMP _0x20024
                 _0x20025:
                 ; 0001 015D   LcdWrite(LCD_D, 0x00);
00039d c00b      	RJMP _0x20C000A
                 ; 0001 015E }
                 ;
                 ;void wc(unsigned char character)
                 ; 0001 0161 {
                 _wc:
                 ; 0001 0162   int index = 0;
                 ; 0001 0163   LcdWrite(LCD_D, 0x00);
00039e 940e 105a 	CALL SUBOPT_0x3
                 ;	character -> Y+2
                 ;	index -> R16,R17
                 ; 0001 0164   for (index = 0; index < 5; index++)
                 _0x20027:
                +
0003a0 3005     +CPI R16 , LOW ( 5 )
0003a1 e0e0     +LDI R30 , HIGH ( 5 )
0003a2 071e     +CPC R17 , R30
                 	__CPWRN 16,17,5
0003a3 f42c      	BRGE _0x20028
                 ; 0001 0165   {
                 ; 0001 0166     LcdWrite(LCD_D, ASCII[character - 0x20][index]);
0003a4 940e 1067 	CALL SUBOPT_0x4
                 ; 0001 0167   }
                +
0003a6 5f0f     +SUBI R16 , LOW ( - 1 )
0003a7 4f1f     +SBCI R17 , HIGH ( - 1 )
                 	__ADDWRN 16,17,1
0003a8 cff7      	RJMP _0x20027
                 _0x20028:
                 ; 0001 0168   LcdWrite(LCD_D, 0x00);
                 _0x20C000A:
0003a9 e0e1      	LDI  R30,LOW(1)
0003aa 940e 1078 	CALL SUBOPT_0x5
                 ; 0001 0169 }
0003ac 8119      	LDD  R17,Y+1
0003ad 8108      	LDD  R16,Y+0
                 _0x20C000B:
0003ae 9623      	ADIW R28,3
0003af 9508      	RET
                 ;
                 ;void ws(unsigned char *characters)
                 ; 0001 016C {
                 _ws:
                 ; 0001 016D   while (*characters)
                 ;	*characters -> Y+0
                 _0x20029:
0003b0 81a8      	LD   R26,Y
0003b1 81b9      	LDD  R27,Y+1
0003b2 91ec      	LD   R30,X
0003b3 30e0      	CPI  R30,0
0003b4 f031      	BREQ _0x2002B
                 ; 0001 016E   {
                 ; 0001 016F     LcdCharacter(*characters++);
0003b5 91ed      	LD   R30,X+
0003b6 83a8      	ST   Y,R26
0003b7 83b9      	STD  Y+1,R27
0003b8 93ea      	ST   -Y,R30
0003b9 dfd8      	RCALL _LcdCharacter
                 ; 0001 0170   }
0003ba cff5      	RJMP _0x20029
                 _0x2002B:
                 ; 0001 0171 }
0003bb c080      	RJMP _0x20C0008
                 ;
                 ;void LcdClear(void)
                 ; 0001 0174 {
                 _LcdClear:
                 ; 0001 0175   int index=0;
                 ; 0001 0176   for (index = 0; index < LCD_X * LCD_Y / 8; index++)
0003bc 940e 107d 	CALL SUBOPT_0x6
                 ;	index -> R16,R17
                 _0x2002D:
                +
0003be 3f08     +CPI R16 , LOW ( 504 )
0003bf e0e1     +LDI R30 , HIGH ( 504 )
0003c0 071e     +CPC R17 , R30
                 	__CPWRN 16,17,504
0003c1 f434      	BRGE _0x2002E
                 ; 0001 0177   {
                 ; 0001 0178     LcdWrite(LCD_D, 0);
0003c2 e0e1      	LDI  R30,LOW(1)
0003c3 940e 1078 	CALL SUBOPT_0x5
                 ; 0001 0179   }
                +
0003c5 5f0f     +SUBI R16 , LOW ( - 1 )
0003c6 4f1f     +SBCI R17 , HIGH ( - 1 )
                 	__ADDWRN 16,17,1
0003c7 cff6      	RJMP _0x2002D
                 _0x2002E:
                 ; 0001 017A   hc(0, 0); //After we clear the display, return to the home position
0003c8 940e 1084 	CALL SUBOPT_0x7
0003ca 940e 1084 	CALL SUBOPT_0x7
0003cc dfba      	RCALL _hc
                 ; 0001 017B }
0003cd c450      	RJMP _0x20C0005
                 ;
                 ;void clear(void)
                 ; 0001 017E {
                 _clear:
                 ; 0001 017F   int index=0;
                 ; 0001 0180   for (index = 0; index < LCD_X * LCD_Y / 8; index++)
0003ce 940e 107d 	CALL SUBOPT_0x6
                 ;	index -> R16,R17
                 _0x20030:
                +
0003d0 3f08     +CPI R16 , LOW ( 504 )
0003d1 e0e1     +LDI R30 , HIGH ( 504 )
0003d2 071e     +CPC R17 , R30
                 	__CPWRN 16,17,504
0003d3 f434      	BRGE _0x20031
                 ; 0001 0181   {
                 ; 0001 0182     LcdWrite(LCD_D, 0);
0003d4 e0e1      	LDI  R30,LOW(1)
0003d5 940e 1078 	CALL SUBOPT_0x5
                 ; 0001 0183   }
                +
0003d7 5f0f     +SUBI R16 , LOW ( - 1 )
0003d8 4f1f     +SBCI R17 , HIGH ( - 1 )
                 	__ADDWRN 16,17,1
0003d9 cff6      	RJMP _0x20030
                 _0x20031:
                 ; 0001 0184   hc(0, 0); //After we clear the display, return to the home position
0003da 940e 1084 	CALL SUBOPT_0x7
0003dc 940e 1084 	CALL SUBOPT_0x7
0003de dfa8      	RCALL _hc
                 ; 0001 0185 }
0003df c43e      	RJMP _0x20C0005
                 ;//============================
                 ;void wn164(unsigned int so)
                 ; 0001 0188 {
                 _wn164:
                 ; 0001 0189  unsigned char a[5],i;
                 ; 0001 018A  for(i=0;i<5;i++)
0003e0 9725      	SBIW R28,5
0003e1 931a      	ST   -Y,R17
                 ;	so -> Y+6
                 ;	a -> Y+1
                 ;	i -> R17
0003e2 e010      	LDI  R17,LOW(0)
                 _0x20033:
0003e3 3015      	CPI  R17,5
0003e4 f430      	BRSH _0x20034
                 ; 0001 018B  {
                 ; 0001 018C  a[i]=so%10;        //a[0]= byte thap nhat
0003e5 940e 1089 	CALL SUBOPT_0x8
0003e7 940e 108c 	CALL SUBOPT_0x9
                 ; 0001 018D  so=so/10;
                 ; 0001 018E  }
0003e9 5f1f      	SUBI R17,-1
0003ea cff8      	RJMP _0x20033
                 _0x20034:
                 ; 0001 018F  for(i=1;i<5;i++)
0003eb e011      	LDI  R17,LOW(1)
                 _0x20036:
0003ec 3015      	CPI  R17,5
0003ed f438      	BRSH _0x20037
                 ; 0001 0190  {wc(a[4-i]+0x30);}
0003ee 940e 1089 	CALL SUBOPT_0x8
0003f0 940e 10a2 	CALL SUBOPT_0xA
0003f2 dfab      	RCALL _wc
0003f3 5f1f      	SUBI R17,-1
0003f4 cff7      	RJMP _0x20036
                 _0x20037:
                 ; 0001 0191 }
0003f5 c031      	RJMP _0x20C0009
                 ;
                 ;void LcdInitialise()
                 ; 0001 0194 {
                 _LcdInitialise:
                 ; 0001 0195   //reset
                 ; 0001 0196   RST=0;
0003f6 98c0      	CBI  0x18,0
                 ; 0001 0197   delay_us(10);
                +
0003f7 e18b     +LDI R24 , LOW ( 27 )
                +__DELAY_USB_LOOP :
0003f8 958a     +DEC R24
0003f9 f7f1     +BRNE __DELAY_USB_LOOP
                 	__DELAY_USB 27
                 ; 0001 0198   RST=1;
0003fa 9ac0      	SBI  0x18,0
                 ; 0001 0199 
                 ; 0001 019A   delay_ms(1000);
0003fb 940e 10b0 	CALL SUBOPT_0xB
                 ; 0001 019B   //khoi dong
                 ; 0001 019C   LcdWrite(LCD_C, 0x21 );  //Tell LCD that extended commands follow
0003fd e0e0      	LDI  R30,LOW(0)
0003fe 93ea      	ST   -Y,R30
0003ff e2e1      	LDI  R30,LOW(33)
000400 940e 1054 	CALL SUBOPT_0x2
                 ; 0001 019D   LcdWrite(LCD_C, 0xBF  );  //Set LCD Vop (Contrast): Try 0xB1(good @ 3.3V) or 0xBF = Dam nhat
000402 ebef      	LDI  R30,LOW(191)
000403 940e 1054 	CALL SUBOPT_0x2
                 ; 0001 019E   LcdWrite(LCD_C, 0x06 );  // Set Temp coefficent. //0x04
000405 e0e6      	LDI  R30,LOW(6)
000406 940e 1054 	CALL SUBOPT_0x2
                 ; 0001 019F   LcdWrite(LCD_C, 0x13 );  //LCD bias mode 1:48: Try 0x13 or 0x14
000408 e1e3      	LDI  R30,LOW(19)
000409 940e 1054 	CALL SUBOPT_0x2
                 ; 0001 01A0   LcdWrite(LCD_C, 0x20 );  //We must send 0x20 before modifying the display control mode
00040b e2e0      	LDI  R30,LOW(32)
00040c 940e 1054 	CALL SUBOPT_0x2
                 ; 0001 01A1   LcdWrite(LCD_C, 0x0C );  //Set display control, normal mode. 0x0D for inverse, 0x0C normal
00040e e0ec      	LDI  R30,LOW(12)
00040f 93ea      	ST   -Y,R30
000410 df69      	RCALL _LcdWrite
                 ; 0001 01A2 }
000411 9508      	RET
                 ;//========================================================
                 ;//============================ Hien thi so 16 bits
                 ;void wn16(unsigned int so)
                 ; 0001 01A6 {
                 _wn16:
                 ; 0001 01A7  unsigned char a[5],i;
                 ; 0001 01A8  for(i=0;i<5;i++)
000412 9725      	SBIW R28,5
000413 931a      	ST   -Y,R17
                 ;	so -> Y+6
                 ;	a -> Y+1
                 ;	i -> R17
000414 e010      	LDI  R17,LOW(0)
                 _0x2003D:
000415 3015      	CPI  R17,5
000416 f430      	BRSH _0x2003E
                 ; 0001 01A9  {
                 ; 0001 01AA  a[i]=so%10;        //a[0]= byte thap nhat
000417 940e 1089 	CALL SUBOPT_0x8
000419 940e 108c 	CALL SUBOPT_0x9
                 ; 0001 01AB  so=so/10;
                 ; 0001 01AC  }
00041b 5f1f      	SUBI R17,-1
00041c cff8      	RJMP _0x2003D
                 _0x2003E:
                 ; 0001 01AD 
                 ; 0001 01AE   for(i=0;i<5;i++)
00041d e010      	LDI  R17,LOW(0)
                 _0x20040:
00041e 3015      	CPI  R17,5
00041f f438      	BRSH _0x20041
                 ; 0001 01AF  {LcdCharacter(a[4-i]+0x30);}
000420 940e 1089 	CALL SUBOPT_0x8
000422 940e 10a2 	CALL SUBOPT_0xA
000424 df6d      	RCALL _LcdCharacter
000425 5f1f      	SUBI R17,-1
000426 cff7      	RJMP _0x20040
                 _0x20041:
                 ; 0001 01B0 }
                 _0x20C0009:
000427 8118      	LDD  R17,Y+0
000428 9628      	ADIW R28,8
000429 9508      	RET
                 ;//============================ Hien thi so 16 bits co dau
                 ; void wn16s( int so)
                 ; 0001 01B3 {
                 _wn16s:
                 ; 0001 01B4  if(so<0){so=0-so; LcdCharacter('-');} else{ LcdCharacter(' ');}
                 ;	so -> Y+0
00042a 81a9      	LDD  R26,Y+1
00042b 23aa      	TST  R26
00042c f442      	BRPL _0x20042
00042d 81a8      	LD   R26,Y
00042e 81b9      	LDD  R27,Y+1
00042f e0e0      	LDI  R30,LOW(0)
000430 e0f0      	LDI  R31,HIGH(0)
000431 940e 10b6 	CALL SUBOPT_0xC
000433 e2ed      	LDI  R30,LOW(45)
000434 c001      	RJMP _0x202DB
                 _0x20042:
000435 e2e0      	LDI  R30,LOW(32)
                 _0x202DB:
000436 93ea      	ST   -Y,R30
000437 df5a      	RCALL _LcdCharacter
                 ; 0001 01B5  wn16(so);
000438 81e8      	LD   R30,Y
000439 81f9      	LDD  R31,Y+1
00043a 940e 10bb 	CALL SUBOPT_0xD
                 ; 0001 01B6 }
                 _0x20C0008:
00043c 9622      	ADIW R28,2
00043d 9508      	RET
                 ;//============================ hien thi so 32bit co dau
                 ; void wn32s( int so)
                 ; 0001 01B9 {
                 ; 0001 01BA  char tmp[20];
                 ; 0001 01BB  sprintf(tmp,"%d",so);
                 ;	so -> Y+20
                 ;	tmp -> Y+0
                 ; 0001 01BC  ws(tmp);
                 ; 0001 01BD }
                 ;//============================ hien thi so 32bit co dau
                 ; void wnf( float so)
                 ; 0001 01C0 {
                 ; 0001 01C1  char tmp[30];
                 ; 0001 01C2  sprintf(tmp,"%0.2f",so);
                 ;	so -> Y+30
                 ;	tmp -> Y+0
                 ; 0001 01C3  ws(tmp);
                 ; 0001 01C4 }
                 ;
                 ;//============================ hien thi so 32bit co dau
                 ; void wfmt(float so)
                 ; 0001 01C8 {
                 ; 0001 01C9  char tmp[30];
                 ; 0001 01CA  sprintf(tmp,"%0.2f",so);
                 ;	so -> Y+30
                 ;	tmp -> Y+0
                 ; 0001 01CB  ws(tmp);
                 ; 0001 01CC }
                 ;//========================================================
                 ;//========================================================
                 ;void SPIinit()
                 ; 0001 01D0 {
                 _SPIinit:
                 ; 0001 01D1     SPCR |=1<<SPE | 1<<MSTR;                                         //if spi is used, uncomment this section out
00043e b1ed      	IN   R30,0xD
00043f 65e0      	ORI  R30,LOW(0x50)
000440 b9ed      	OUT  0xD,R30
                 ; 0001 01D2     SPSR |=1<<SPI2X;
000441 9a70      	SBI  0xE,0
                 ; 0001 01D3 }
000442 9508      	RET
                 ;//========================================================
                 ;void LCDinit()
                 ; 0001 01D6 {
                 _LCDinit:
                 ; 0001 01D7     LcdInitialise();
000443 dfb2      	RCALL _LcdInitialise
                 ; 0001 01D8     LcdClear();
000444 df77      	RCALL _LcdClear
                 ; 0001 01D9     ws(" <AKBOTKIT>");
                +
000445 e6e0     +LDI R30 , LOW ( _0x20044 + ( 0 ) )
000446 e0f2     +LDI R31 , HIGH ( _0x20044 + ( 0 ) )
                 	__POINTW1MN _0x20044,0
000447 940e 10bf 	CALL SUBOPT_0xE
                 ; 0001 01DA }
000449 9508      	RET
                 
                 	.DSEG
                 _0x20044:
000260           	.BYTE 0xC
                 ;//========================================================
                 ;//ham doc adc
                 ;#define ADC_VREF_TYPE 0x40
                 ;// Read the AD conversion result
                 ;unsigned int read_adc(unsigned char adc_input)
                 ; 0001 01E0 {
                 
                 	.CSEG
                 _read_adc:
                 ; 0001 01E1 ADMUX=adc_input | (ADC_VREF_TYPE & 0xff);
                 ;	adc_input -> Y+0
00044a 81e8      	LD   R30,Y
00044b 64e0      	ORI  R30,0x40
00044c b9e7      	OUT  0x7,R30
                 ; 0001 01E2 // Delay needed for the stabilization of the ADC input voltage
                 ; 0001 01E3 delay_us(10);
                +
00044d e18b     +LDI R24 , LOW ( 27 )
                +__DELAY_USB_LOOP :
00044e 958a     +DEC R24
00044f f7f1     +BRNE __DELAY_USB_LOOP
                 	__DELAY_USB 27
                 ; 0001 01E4 // Start the AD conversion
                 ; 0001 01E5 ADCSRA|=0x40;
000450 9a36      	SBI  0x6,6
                 ; 0001 01E6 // Wait for the AD conversion to complete
                 ; 0001 01E7 while ((ADCSRA & 0x10)==0);
                 _0x20045:
000451 9b34      	SBIS 0x6,4
000452 cffe      	RJMP _0x20045
                 ; 0001 01E8 ADCSRA|=0x10;
000453 9a34      	SBI  0x6,4
                 ; 0001 01E9 return ADCW;
000454 b1e4      	IN   R30,0x4
000455 b1f5      	IN   R31,0x4+1
000456 c0de      	RJMP _0x20C0007
                 ; 0001 01EA }
                 ;//========================================================
                 ;//===================================== TRUYEN THONG UART (bluetooth)
                 ;#ifndef RXB8
                 ;#define RXB8 1
                 ;#endif
                 ;
                 ;#ifndef TXB8
                 ;#define TXB8 0
                 ;#endif
                 ;
                 ;#ifndef UPE
                 ;#define UPE 2
                 ;#endif
                 ;
                 ;#ifndef DOR
                 ;#define DOR 3
                 ;#endif
                 ;
                 ;#ifndef FE
                 ;#define FE 4
                 ;#endif
                 ;
                 ;#ifndef UDRE
                 ;#define UDRE 5
                 ;#endif
                 ;
                 ;#ifndef RXC
                 ;#define RXC 7
                 ;#endif
                 ;
                 ;#define FRAMING_ERROR (1<<FE)
                 ;#define PARITY_ERROR (1<<UPE)
                 ;#define DATA_OVERRUN (1<<DOR)
                 ;#define DATA_REGISTER_EMPTY (1<<UDRE)
                 ;#define RX_COMPLETE (1<<RXC)
                 ;
                 ;// USART Receiver buffer
                 ;#define RX_BUFFER_SIZE 8
                 ;char rx_buffer[RX_BUFFER_SIZE];
                 ;
                 ;#if RX_BUFFER_SIZE <= 256
                 ;unsigned char rx_wr_index,rx_rd_index,rx_counter;
                 ;#else
                 ;unsigned int rx_wr_index,rx_rd_index,rx_counter;
                 ;#endif
                 ;
                 ;// This flag is set on USART Receiver buffer overflow
                 ;bit rx_buffer_overflow;
                 ;
                 ;// USART Receiver interrupt service routine
                 ;interrupt [USART_RXC] void usart_rx_isr(void)
                 ; 0001 021E {
                 _usart_rx_isr:
000457 93aa      	ST   -Y,R26
000458 93ea      	ST   -Y,R30
000459 93fa      	ST   -Y,R31
00045a b7ef      	IN   R30,SREG
00045b 93ea      	ST   -Y,R30
                 ; 0001 021F char status,data;
                 ; 0001 0220 status=UCSRA;
00045c 931a      	ST   -Y,R17
00045d 930a      	ST   -Y,R16
                 ;	status -> R17
                 ;	data -> R16
00045e b11b      	IN   R17,11
                 ; 0001 0221 data=UDR;
00045f b10c      	IN   R16,12
                 ; 0001 0222 if ((status & (FRAMING_ERROR | PARITY_ERROR | DATA_OVERRUN))==0)
000460 2fe1      	MOV  R30,R17
000461 71ec      	ANDI R30,LOW(0x1C)
000462 f4d9      	BRNE _0x20048
                 ; 0001 0223    {
                 ; 0001 0224    rx_buffer[rx_wr_index++]=data;
000463 91e0 056b 	LDS  R30,_rx_wr_index
000465 5fef      	SUBI R30,-LOW(1)
000466 93e0 056b 	STS  _rx_wr_index,R30
000468 940e 10c3 	CALL SUBOPT_0xF
00046a 8300      	ST   Z,R16
                 ; 0001 0225 #if RX_BUFFER_SIZE == 256
                 ; 0001 0226    // special case for receiver buffer size=256
                 ; 0001 0227    if (++rx_counter == 0)
                 ; 0001 0228       {
                 ; 0001 0229 #else
                 ; 0001 022A    if (rx_wr_index == RX_BUFFER_SIZE) rx_wr_index=0;
00046b 91a0 056b 	LDS  R26,_rx_wr_index
00046d 30a8      	CPI  R26,LOW(0x8)
00046e f419      	BRNE _0x20049
00046f e0e0      	LDI  R30,LOW(0)
000470 93e0 056b 	STS  _rx_wr_index,R30
                 ; 0001 022B    if (++rx_counter == RX_BUFFER_SIZE)
                 _0x20049:
000472 91a0 056d 	LDS  R26,_rx_counter
000474 5faf      	SUBI R26,-LOW(1)
000475 93a0 056d 	STS  _rx_counter,R26
000477 30a8      	CPI  R26,LOW(0x8)
000478 f429      	BRNE _0x2004A
                 ; 0001 022C       {
                 ; 0001 022D       rx_counter=0;
000479 e0e0      	LDI  R30,LOW(0)
00047a 93e0 056d 	STS  _rx_counter,R30
                 ; 0001 022E #endif
                 ; 0001 022F       rx_buffer_overflow=1;
00047c 9468      	SET
00047d f820      	BLD  R2,0
                 ; 0001 0230       }
                 ; 0001 0231    }
                 _0x2004A:
                 ; 0001 0232 }
                 _0x20048:
00047e 9109      	LD   R16,Y+
00047f 9119      	LD   R17,Y+
000480 c03a      	RJMP _0x202F2
                 ;
                 ;#ifndef _DEBUG_TERMINAL_IO_
                 ;// Get a character from the USART Receiver buffer
                 ;#define _ALTERNATE_GETCHAR_
                 ;#pragma used+
                 ;char getchar(void)
                 ; 0001 0239 {
                 _getchar:
                 ; 0001 023A char data;
                 ; 0001 023B while (rx_counter==0);
000481 931a      	ST   -Y,R17
                 ;	data -> R17
                 _0x2004B:
000482 91e0 056d 	LDS  R30,_rx_counter
000484 30e0      	CPI  R30,0
000485 f3e1      	BREQ _0x2004B
                 ; 0001 023C data=rx_buffer[rx_rd_index++];
000486 91e0 056c 	LDS  R30,_rx_rd_index
000488 5fef      	SUBI R30,-LOW(1)
000489 93e0 056c 	STS  _rx_rd_index,R30
00048b 940e 10c3 	CALL SUBOPT_0xF
00048d 8110      	LD   R17,Z
                 ; 0001 023D #if RX_BUFFER_SIZE != 256
                 ; 0001 023E if (rx_rd_index == RX_BUFFER_SIZE) rx_rd_index=0;
00048e 91a0 056c 	LDS  R26,_rx_rd_index
000490 30a8      	CPI  R26,LOW(0x8)
000491 f419      	BRNE _0x2004E
000492 e0e0      	LDI  R30,LOW(0)
000493 93e0 056c 	STS  _rx_rd_index,R30
                 ; 0001 023F #endif
                 ; 0001 0240 #asm("cli")
                 _0x2004E:
000495 94f8      	cli
                 ; 0001 0241 --rx_counter;
000496 91e0 056d 	LDS  R30,_rx_counter
000498 50e1      	SUBI R30,LOW(1)
000499 93e0 056d 	STS  _rx_counter,R30
                 ; 0001 0242 #asm("sei")
00049b 9478      	sei
                 ; 0001 0243 return data;
00049c 2fe1      	MOV  R30,R17
00049d 9119      	LD   R17,Y+
00049e 9508      	RET
                 ; 0001 0244 }
                 ;#pragma used-
                 ;#endif
                 ;
                 ;// USART Transmitter buffer
                 ;#define TX_BUFFER_SIZE 8
                 ;char tx_buffer[TX_BUFFER_SIZE];
                 ;
                 ;#if TX_BUFFER_SIZE <= 256
                 ;unsigned char tx_wr_index,tx_rd_index,tx_counter;
                 ;#else
                 ;unsigned int tx_wr_index,tx_rd_index,tx_counter;
                 ;#endif
                 ;
                 ;// USART Transmitter interrupt service routine
                 ;interrupt [USART_TXC] void usart_tx_isr(void)
                 ; 0001 0254 {
                 _usart_tx_isr:
00049f 93aa      	ST   -Y,R26
0004a0 93ea      	ST   -Y,R30
0004a1 93fa      	ST   -Y,R31
0004a2 b7ef      	IN   R30,SREG
0004a3 93ea      	ST   -Y,R30
                 ; 0001 0255     if (tx_counter)
0004a4 91e0 0578 	LDS  R30,_tx_counter
0004a6 30e0      	CPI  R30,0
0004a7 f099      	BREQ _0x2004F
                 ; 0001 0256        {
                 ; 0001 0257        --tx_counter;
0004a8 50e1      	SUBI R30,LOW(1)
0004a9 93e0 0578 	STS  _tx_counter,R30
                 ; 0001 0258        UDR=tx_buffer[tx_rd_index++];
0004ab 91e0 0577 	LDS  R30,_tx_rd_index
0004ad 5fef      	SUBI R30,-LOW(1)
0004ae 93e0 0577 	STS  _tx_rd_index,R30
0004b0 940e 10c8 	CALL SUBOPT_0x10
0004b2 81e0      	LD   R30,Z
0004b3 b9ec      	OUT  0xC,R30
                 ; 0001 0259     #if TX_BUFFER_SIZE != 256
                 ; 0001 025A        if (tx_rd_index == TX_BUFFER_SIZE) tx_rd_index=0;
0004b4 91a0 0577 	LDS  R26,_tx_rd_index
0004b6 30a8      	CPI  R26,LOW(0x8)
0004b7 f419      	BRNE _0x20050
0004b8 e0e0      	LDI  R30,LOW(0)
0004b9 93e0 0577 	STS  _tx_rd_index,R30
                 ; 0001 025B     #endif
                 ; 0001 025C        }
                 _0x20050:
                 ; 0001 025D }
                 _0x2004F:
                 _0x202F2:
0004bb 91e9      	LD   R30,Y+
0004bc bfef      	OUT  SREG,R30
0004bd 91f9      	LD   R31,Y+
0004be 91e9      	LD   R30,Y+
0004bf 91a9      	LD   R26,Y+
0004c0 9518      	RETI
                 ;
                 ;#ifndef _DEBUG_TERMINAL_IO_
                 ;// Write a character to the USART Transmitter buffer
                 ;#define _ALTERNATE_PUTCHAR_
                 ;#pragma used+
                 ;void putchar(char c)
                 ; 0001 0264 {
                 _putchar:
                 ; 0001 0265     while (tx_counter == TX_BUFFER_SIZE);
                 ;	c -> Y+0
                 _0x20051:
0004c1 91a0 0578 	LDS  R26,_tx_counter
0004c3 30a8      	CPI  R26,LOW(0x8)
0004c4 f3e1      	BREQ _0x20051
                 ; 0001 0266     #asm("cli")
0004c5 94f8      	cli
                 ; 0001 0267     if (tx_counter || ((UCSRA & DATA_REGISTER_EMPTY)==0))
0004c6 91e0 0578 	LDS  R30,_tx_counter
0004c8 30e0      	CPI  R30,0
0004c9 f411      	BRNE _0x20055
0004ca 995d      	SBIC 0xB,5
0004cb c016      	RJMP _0x20054
                 _0x20055:
                 ; 0001 0268        {
                 ; 0001 0269        tx_buffer[tx_wr_index++]=c;
0004cc 91e0 0576 	LDS  R30,_tx_wr_index
0004ce 5fef      	SUBI R30,-LOW(1)
0004cf 93e0 0576 	STS  _tx_wr_index,R30
0004d1 940e 10c8 	CALL SUBOPT_0x10
0004d3 81a8      	LD   R26,Y
0004d4 83a0      	STD  Z+0,R26
                 ; 0001 026A     #if TX_BUFFER_SIZE != 256
                 ; 0001 026B        if (tx_wr_index == TX_BUFFER_SIZE) tx_wr_index=0;
0004d5 91a0 0576 	LDS  R26,_tx_wr_index
0004d7 30a8      	CPI  R26,LOW(0x8)
0004d8 f419      	BRNE _0x20057
0004d9 e0e0      	LDI  R30,LOW(0)
0004da 93e0 0576 	STS  _tx_wr_index,R30
                 ; 0001 026C     #endif
                 ; 0001 026D        ++tx_counter;
                 _0x20057:
0004dc 91e0 0578 	LDS  R30,_tx_counter
0004de 5fef      	SUBI R30,-LOW(1)
0004df 93e0 0578 	STS  _tx_counter,R30
                 ; 0001 026E        }
                 ; 0001 026F     else
0004e1 c002      	RJMP _0x20058
                 _0x20054:
                 ; 0001 0270        UDR=c;
0004e2 81e8      	LD   R30,Y
0004e3 b9ec      	OUT  0xC,R30
                 ; 0001 0271     #asm("sei")
                 _0x20058:
0004e4 9478      	sei
                 ; 0001 0272 }
0004e5 c04f      	RJMP _0x20C0007
                 ;#pragma used-
                 ;#endif
                 ;void inituart()
                 ; 0001 0276 {
                 _inituart:
                 ; 0001 0277 // USART initialization
                 ; 0001 0278 // Communication Parameters: 8 Data, 1 Stop, No Parity
                 ; 0001 0279 // USART Receiver: On
                 ; 0001 027A // USART Transmitter: On
                 ; 0001 027B // USART Mode: Asynchronous
                 ; 0001 027C // USART Baud Rate: 38400
                 ; 0001 027D UCSRA=0x00;
0004e6 e0e0      	LDI  R30,LOW(0)
0004e7 b9eb      	OUT  0xB,R30
                 ; 0001 027E UCSRB=0xD8;
0004e8 ede8      	LDI  R30,LOW(216)
0004e9 b9ea      	OUT  0xA,R30
                 ; 0001 027F UCSRC=0x06;
0004ea e0e6      	LDI  R30,LOW(6)
0004eb bde0      	OUT  0x20,R30
                 ; 0001 0280 UBRRH=0x00;
0004ec e0e0      	LDI  R30,LOW(0)
0004ed bde0      	OUT  0x20,R30
                 ; 0001 0281 UBRRL=0x0C;
0004ee e0ec      	LDI  R30,LOW(12)
0004ef b9e9      	OUT  0x9,R30
                 ; 0001 0282 }
0004f0 9508      	RET
                 ;
                 ;//========================================================
                 ;//read encoder
                 ;// External Interrupt 0 service routine
                 ;interrupt [EXT_INT0] void ext_int0_isr(void)
                 ; 0001 0288 {
                 _ext_int0_isr:
0004f1 940e 10cd 	CALL SUBOPT_0x11
                 ; 0001 0289      QEL++;
0004f3 e5af      	LDI  R26,LOW(_QEL)
0004f4 e0b5      	LDI  R27,HIGH(_QEL)
0004f5 c004      	RJMP _0x202F1
                 ; 0001 028A }
                 ;
                 ;// External Interrupt 1 service routine
                 ;interrupt [EXT_INT1] void ext_int1_isr(void)
                 ; 0001 028E {
                 _ext_int1_isr:
0004f6 940e 10cd 	CALL SUBOPT_0x11
                 ; 0001 028F     QER++;
0004f8 e6a1      	LDI  R26,LOW(_QER)
0004f9 e0b5      	LDI  R27,HIGH(_QER)
                 _0x202F1:
0004fa 91ed      	LD   R30,X+
0004fb 91fd      	LD   R31,X+
0004fc 9631      	ADIW R30,1
0004fd 93fe      	ST   -X,R31
0004fe 93ee      	ST   -X,R30
                 ; 0001 0290 }
0004ff 91e9      	LD   R30,Y+
000500 bfef      	OUT  SREG,R30
000501 91f9      	LD   R31,Y+
000502 91e9      	LD   R30,Y+
000503 91b9      	LD   R27,Y+
000504 91a9      	LD   R26,Y+
000505 9518      	RETI
                 ;//========================================================
                 ;//khoi tao encoder
                 ;void initencoder()
                 ; 0001 0294 {
                 _initencoder:
                 ; 0001 0295 // Dem 24 xung / 1 vong banh xe
                 ; 0001 0296 // External Interrupt(s) initialization
                 ; 0001 0297 // INT0: On
                 ; 0001 0298 // INT0 Mode: Any change
                 ; 0001 0299 // INT1: On
                 ; 0001 029A // INT1 Mode: Any change
                 ; 0001 029B // INT2: Off
                 ; 0001 029C GICR|=0xC0;
000506 b7eb      	IN   R30,0x3B
000507 6ce0      	ORI  R30,LOW(0xC0)
000508 bfeb      	OUT  0x3B,R30
                 ; 0001 029D MCUCR=0x05;
000509 e0e5      	LDI  R30,LOW(5)
00050a bfe5      	OUT  0x35,R30
                 ; 0001 029E MCUCSR=0x00;
00050b e0e0      	LDI  R30,LOW(0)
00050c bfe4      	OUT  0x34,R30
                 ; 0001 029F GIFR=0xC0;
00050d ece0      	LDI  R30,LOW(192)
00050e bfea      	OUT  0x3A,R30
                 ; 0001 02A0 // Global enable interrupts
                 ; 0001 02A1 
                 ; 0001 02A2 //OCR1A=0-255; MOTOR LEFT
                 ; 0001 02A3 //OCR1B=0-255; MOTOR RIGHT
                 ; 0001 02A4 }
00050f 9508      	RET
                 ;
                 ;//========================================================
                 ;//control velocity motor
                 ;void vMLtoi(unsigned char v) //congsuat=0-22 (%)
                 ; 0001 02A9 {
                 _vMLtoi:
                 ; 0001 02AA     seRki=0;//reset thanh phan I
                 ;	v -> Y+0
000510 940e 10d4 	CALL SUBOPT_0x12
                 ; 0001 02AB     seLki=0;//reset thanh phan I
                 ; 0001 02AC     //uRold=0;
                 ; 0001 02AD     MLdir = 1;
000512 9aae      	SBI  0x15,6
                 ; 0001 02AE     svQEL = v;
000513 940e 10de 	CALL SUBOPT_0x13
                 ; 0001 02AF }
000515 c01f      	RJMP _0x20C0007
                 ;//========================================================
                 ;void vMLlui(unsigned char v) //congsuat=0-22 (%)
                 ; 0001 02B2 {
                 _vMLlui:
                 ; 0001 02B3     seRki=0;//reset thanh phan I
                 ;	v -> Y+0
000516 940e 10d4 	CALL SUBOPT_0x12
                 ; 0001 02B4     seLki=0;//reset thanh phan I
                 ; 0001 02B5 
                 ; 0001 02B6     //uRold=0;
                 ; 0001 02B7     MLdir = 0;
000518 98ae      	CBI  0x15,6
                 ; 0001 02B8     svQEL = v;
000519 940e 10de 	CALL SUBOPT_0x13
                 ; 0001 02B9 }
00051b c019      	RJMP _0x20C0007
                 ;//========================================================
                 ;void vMLstop()
                 ; 0001 02BC {
                 _vMLstop:
                 ; 0001 02BD     seRki=0;//reset thanh phan I
00051c 940e 10d4 	CALL SUBOPT_0x12
                 ; 0001 02BE     seLki=0;//reset thanh phan I
                 ; 0001 02BF     MLdir = 1;
00051e 9aae      	SBI  0x15,6
                 ; 0001 02C0     OCR1A = 0;
00051f e0e0      	LDI  R30,LOW(0)
000520 e0f0      	LDI  R31,HIGH(0)
000521 bdfb      	OUT  0x2A+1,R31
000522 bdea      	OUT  0x2A,R30
                 ; 0001 02C1     svQEL = 0;
000523 93e0 0539 	STS  _svQEL,R30
000525 93e0 053a 	STS  _svQEL+1,R30
                 ; 0001 02C2 }
000527 9508      	RET
                 ;//========================================================
                 ;//========================================================
                 ;void vMRtoi(unsigned char v) //congsuat=0-22 (%)
                 ; 0001 02C6 {
                 _vMRtoi:
                 ; 0001 02C7     seRki=0;//reset thanh phan I
                 ;	v -> Y+0
000528 940e 10d4 	CALL SUBOPT_0x12
                 ; 0001 02C8     seLki=0;//reset thanh phan I
                 ; 0001 02C9     MRdir = 1;
00052a 9aaf      	SBI  0x15,7
                 ; 0001 02CA     svQER = v;
00052b c003      	RJMP _0x20C0006
                 ; 0001 02CB }
                 ;//========================================================
                 ;void vMRlui(unsigned char v) //congsuat=0-22 (%)
                 ; 0001 02CE {
                 _vMRlui:
                 ; 0001 02CF     seRki=0;//reset thanh phan I
                 ;	v -> Y+0
00052c 940e 10d4 	CALL SUBOPT_0x12
                 ; 0001 02D0     seLki=0;//reset thanh phan I
                 ; 0001 02D1     MRdir = 0;
00052e 98af      	CBI  0x15,7
                 ; 0001 02D2     svQER = v;
                 _0x20C0006:
00052f 81e8      	LD   R30,Y
000530 e0f0      	LDI  R31,0
000531 93e0 053b 	STS  _svQER,R30
000533 93f0 053c 	STS  _svQER+1,R31
                 ; 0001 02D3 }
                 _0x20C0007:
000535 9621      	ADIW R28,1
000536 9508      	RET
                 ;//========================================================
                 ;void vMRstop()
                 ; 0001 02D6 {
                 _vMRstop:
                 ; 0001 02D7     seRki=0;//reset thanh phan I
000537 940e 10d4 	CALL SUBOPT_0x12
                 ; 0001 02D8     seLki=0;//reset thanh phan I
                 ; 0001 02D9     MRdir = 1;
000539 9aaf      	SBI  0x15,7
                 ; 0001 02DA     OCR1B = 0;
00053a e0e0      	LDI  R30,LOW(0)
00053b e0f0      	LDI  R31,HIGH(0)
00053c bdf9      	OUT  0x28+1,R31
00053d bde8      	OUT  0x28,R30
                 ; 0001 02DB     svQER=0;
00053e 93e0 053b 	STS  _svQER,R30
000540 93e0 053c 	STS  _svQER+1,R30
                 ; 0001 02DC }
000542 9508      	RET
                 ;//========================================================
                 ;// ham dieu khien vi tri
                 ;void ctrRobottoi(unsigned int d,unsigned int v)  //v:0-22
                 ; 0001 02E0 {
                 ; 0001 02E1      flagwaitctrAngle=0;
                 ;	d -> Y+2
                 ;	v -> Y+0
                 ; 0001 02E2      flagwaitctrRobot=1;
                 ; 0001 02E3      sd=d;// set gia tri khoang cach di chuyen
                 ; 0001 02E4      oldd = (QEL+QER)/2; // luu gia tri vi tri hien tai
                 ; 0001 02E5      vMRtoi(v);
                 ; 0001 02E6      vMLtoi(v);
                 ; 0001 02E7 }
                 ;// ham dieu khien vi tri
                 ;void ctrRobotlui(unsigned int d,unsigned int v)  //v:0-22
                 ; 0001 02EA {
                 ; 0001 02EB      flagwaitctrAngle=0;
                 ;	d -> Y+2
                 ;	v -> Y+0
                 ; 0001 02EC      flagwaitctrRobot=1;
                 ; 0001 02ED      sd=d;// set gia tri khoang cach di chuyen
                 ; 0001 02EE      oldd = (QEL+QER)/2; // luu gia tri vi tri hien tai
                 ; 0001 02EF      vMRlui(v);
                 ; 0001 02F0      vMLlui(v);
                 ; 0001 02F1 }
                 ;// ham dieu khien goc quay
                 ;void ctrRobotXoay(int angle,unsigned int v)  //v:0-22
                 ; 0001 02F4 {
                 ; 0001 02F5      float fangle=0;
                 ; 0001 02F6      flagwaitctrRobot=0;
                 ;	angle -> Y+6
                 ;	v -> Y+4
                 ;	fangle -> Y+0
                 ; 0001 02F7      if(angle>0)  { //xoay trai
                 ; 0001 02F8 
                 ; 0001 02F9         if(angle > 1) vMRtoi(v);
                 ; 0001 02FA         else vMRtoi(0);
                 ; 0001 02FB         if(angle > 1) vMLlui(v);
                 ; 0001 02FC         else vMLlui(0);
                 ; 0001 02FD      }else  //xoay phai
                 ; 0001 02FE      {
                 ; 0001 02FF         angle=-angle;
                 ; 0001 0300         if(angle > 1) vMRlui(v);
                 ; 0001 0301         else vMRlui(0);
                 ; 0001 0302         if(angle > 1) vMLtoi(v);
                 ; 0001 0303         else vMLtoi(0);
                 ; 0001 0304      }
                 ; 0001 0305      flagwaitctrAngle=1;
                 ; 0001 0306      //sa=angle/2;// set gia tri khoang cach di chuyen chia doi cho di chuyen 2 banh
                 ; 0001 0307      fangle=angle*0.35;// nhan chia so float
                 ; 0001 0308      sa=fangle;
                 ; 0001 0309      olda = QEL; // luu gia tri vi tri hien tai
                 ; 0001 030A }
                 ;
                 ;
                 ;
                 ;
                 ;//========================================================
                 ;// read  vi tri robot   PHUC
                 ;//========================================================
                 ;unsigned char readposition()
                 ; 0001 0313 {
                 ; 0001 0314         unsigned char  i=0;
                 ; 0001 0315         unsigned flagstatus=0;
                 ; 0001 0316 
                 ; 0001 0317         if(nRF24L01_RxPacket(RxBuf)==1)         // Neu nhan duoc du lieu
                 ;	i -> R17
                 ;	flagstatus -> R18,R19
                 ; 0001 0318         {
                 ; 0001 0319          for( i=0;i<28;i++)
                 ; 0001 031A          {
                 ; 0001 031B              *(uint8_t *) ((uint8_t *)&rb + i)=RxBuf[i];
                 ; 0001 031C          }
                 ; 0001 031D 
                 ; 0001 031E 
                 ; 0001 031F          idRobot = fmod(rb.id,10); // doc id
                 ; 0001 0320          cmdCtrlRobot = (int)rb.id/10; // doc ma lenh
                 ; 0001 0321 //           hc(5,40);wn16s(cmdCtrlRobot);
                 ; 0001 0322 //         hc(4,40);wn16s(idRobot);
                 ; 0001 0323 //         hc(3,40);wn16s(flagtask);
                 ; 0001 0324 //
                 ; 0001 0325 //         //delay_ms(100);
                 ; 0001 0326          switch (idRobot)
                 ; 0001 0327          {
                 ; 0001 0328               case 1:
                 ; 0001 0329                 robot11=rb;
                 ; 0001 032A                 break;
                 ; 0001 032B               case 2:
                 ; 0001 032C                 robot12=rb;
                 ; 0001 032D                 break;
                 ; 0001 032E               case 3:
                 ; 0001 032F                 robot13=rb;
                 ; 0001 0330                 break;
                 ; 0001 0331               case 4:
                 ; 0001 0332                 robot21=rb;
                 ; 0001 0333                 break;
                 ; 0001 0334               case 5:
                 ; 0001 0335                 robot22=rb;
                 ; 0001 0336                 break;
                 ; 0001 0337               case 6:
                 ; 0001 0338                 robot23=rb;
                 ; 0001 0339                 break;
                 ; 0001 033A 
                 ; 0001 033B          }
                 ; 0001 033C          if(idRobot==ROBOT_ID)
                 ; 0001 033D          {
                 ; 0001 033E              LEDL=!LEDL;
                 ; 0001 033F              cmdCtrlRobot = (int)rb.id/10; // doc ma lenh
                 ; 0001 0340              flagstatus=1;
                 ; 0001 0341              robotctrl=rb;
                 ; 0001 0342          }
                 ; 0001 0343 
                 ; 0001 0344      }
                 ; 0001 0345 //     //khong thay truyen tinh hieu robot
                 ; 0001 0346 //     if(flagstatus==0)    cntunsignalRF ++;
                 ; 0001 0347 //     else
                 ; 0001 0348 //     {
                 ; 0001 0349 //       cntunsignalRF=0;
                 ; 0001 034A //     }
                 ; 0001 034B //     if(cntunsignalRF > 10000)  // xac nhan mat tin hieu RF
                 ; 0001 034C //     {
                 ; 0001 034D //        flagunsignalRF=1;
                 ; 0001 034E //     }else flagunsignalRF=0;
                 ; 0001 034F //     if(cntunlookRB > 10)  // xac nhan robot roi vao diem mu
                 ; 0001 0350 //     {
                 ; 0001 0351 //        flagunlookRB=1;
                 ; 0001 0352 //     }else  flagunlookRB=0;
                 ; 0001 0353      return flagstatus;
                 ; 0001 0354 
                 ; 0001 0355 }
                 ;//========================================================
                 ;// calc  vi tri robot   so voi mot diem (x,y)        PHUC
                 ;// return goclenh va khoang cach, HUONG TAN CONG
                 ;//========================================================
                 ;void calcvitri(float x,float y)
                 ; 0001 035B {
                 ; 0001 035C         float ahx,ahy,aox,aoy,dah,dao,ahay,cosgoc,anpla0,anpla1,detaanpla;
                 ; 0001 035D         ahx = robotctrl.ox-robotctrl.x;
                 ;	x -> Y+48
                 ;	y -> Y+44
                 ;	ahx -> Y+40
                 ;	ahy -> Y+36
                 ;	aox -> Y+32
                 ;	aoy -> Y+28
                 ;	dah -> Y+24
                 ;	dao -> Y+20
                 ;	ahay -> Y+16
                 ;	cosgoc -> Y+12
                 ;	anpla0 -> Y+8
                 ;	anpla1 -> Y+4
                 ;	detaanpla -> Y+0
                 ; 0001 035E         ahy = robotctrl.oy-robotctrl.y;
                 ; 0001 035F         aox = x-robotctrl.x;
                 ; 0001 0360         aoy = y-robotctrl.y;
                 ; 0001 0361         dah = sqrt(ahx*ahx+ahy*ahy)  ;
                 ; 0001 0362         dao = sqrt(aox*aox+aoy*aoy)  ;
                 ; 0001 0363         ahay= ahx*aox+ahy*aoy;
                 ; 0001 0364         cosgoc = ahay/(dah*dao);
                 ; 0001 0365 
                 ; 0001 0366         anpla0 = atan2(ahy,ahx);
                 ; 0001 0367         anpla1 = atan2(aoy,aox);
                 ; 0001 0368         detaanpla= anpla0-anpla1;
                 ; 0001 0369 
                 ; 0001 036A         errangle = acos(cosgoc*180)/3.14;
                 ; 0001 036B         if(((detaanpla>0)&&(detaanpla <M_PI))|| (detaanpla <-M_PI))  // xet truong hop goc ben phai
                 ; 0001 036C         {
                 ; 0001 036D              errangle = - errangle; // ben phai
                 ; 0001 036E         }
                 ; 0001 036F         else
                 ; 0001 0370         {
                 ; 0001 0371             errangle = errangle;   // ben trai
                 ; 0001 0372 
                 ; 0001 0373         }
                 ; 0001 0374         distance = sqrt(aox*3.48*aox*3.48+aoy*2.89*aoy*2.89); //tinh khoang cach
                 ; 0001 0375         orentation = atan2(ahy,ahx)*180/M_PI + offestsanco;//tinh huong ra goc
                 ; 0001 0376         if(( 0 < orentation && orentation < 74) ||   ( 0 > orentation && orentation > -80) )
                 ; 0001 0377         {
                 ; 0001 0378            if(SAN_ID == 1)// phan san duong
                 ; 0001 0379            {
                 ; 0001 037A             flagtancong=0;
                 ; 0001 037B             offsetphongthu = 70 ;
                 ; 0001 037C             goctancong = 180;
                 ; 0001 037D            }
                 ; 0001 037E            else // phan san am
                 ; 0001 037F            {
                 ; 0001 0380             flagtancong=1;
                 ; 0001 0381 
                 ; 0001 0382            }
                 ; 0001 0383         }else
                 ; 0001 0384         {
                 ; 0001 0385            if(SAN_ID == 1)
                 ; 0001 0386            {
                 ; 0001 0387            flagtancong=1;
                 ; 0001 0388            }
                 ; 0001 0389            else
                 ; 0001 038A            {
                 ; 0001 038B             flagtancong=0;
                 ; 0001 038C             offsetphongthu = -70 ;
                 ; 0001 038D             goctancong = 0;
                 ; 0001 038E            }
                 ; 0001 038F         }
                 ; 0001 0390 
                 ; 0001 0391 }
                 ;void runEscStuck()
                 ; 0001 0393 {
                 ; 0001 0394 
                 ; 0001 0395     //PHUC
                 ; 0001 0396     while(cmdCtrlRobot==4)
                 ; 0001 0397     {
                 ; 0001 0398 
                 ; 0001 0399         DDRA    = 0x00;
                 ; 0001 039A         PORTA   = 0x00;
                 ; 0001 039B         IRFL=read_adc(4);
                 ; 0001 039C         IRFR=read_adc(5);
                 ; 0001 039D 
                 ; 0001 039E //        if((IRFL<300)&&(IRFR<300))
                 ; 0001 039F //        {
                 ; 0001 03A0 //            vMLlui(15);vMRlui(25);
                 ; 0001 03A1 //            delay_ms(50);
                 ; 0001 03A2 //        }else
                 ; 0001 03A3 //        {
                 ; 0001 03A4 //            if (IRFL>300 && IRFR<300)
                 ; 0001 03A5 //            {
                 ; 0001 03A6 //             vMLlui(5);vMRlui(22);delay_ms(300);
                 ; 0001 03A7 //            }
                 ; 0001 03A8 //            if (IRFR>300 && IRFL<300 )
                 ; 0001 03A9 //            {
                 ; 0001 03AA //            vMLlui(22);vMRlui(5);delay_ms(300);
                 ; 0001 03AB //            }
                 ; 0001 03AC //        }
                 ; 0001 03AD 
                 ; 0001 03AE         if((IRFL<300)&&(IRFR<300))
                 ; 0001 03AF         {
                 ; 0001 03B0             vMLtoi(22);vMRlui(22);
                 ; 0001 03B1             delay_ms(100);
                 ; 0001 03B2         }
                 ; 0001 03B3          if (IRFL>300 && IRFR<300)
                 ; 0001 03B4         {
                 ; 0001 03B5             vMLlui(0);vMRlui(25);delay_ms(100);
                 ; 0001 03B6         }
                 ; 0001 03B7         if (IRFR>300 && IRFL<300 )
                 ; 0001 03B8         {
                 ; 0001 03B9             vMLlui(25);vMRlui(0);delay_ms(100);
                 ; 0001 03BA         }
                 ; 0001 03BB         LEDBR=!LEDBR;
                 ; 0001 03BC        // delay_ms(10);
                 ; 0001 03BD        readposition();//doc RF cap nhat lai robot
                 ; 0001 03BE     }
                 ; 0001 03BF }
                 ;void runEscStucksethome()
                 ; 0001 03C1 {
                 ; 0001 03C2     //PHUC
                 ; 0001 03C3     while(cmdCtrlRobot==7)
                 ; 0001 03C4     {
                 ; 0001 03C5          DDRA    = 0x00;
                 ; 0001 03C6          PORTA   = 0x00;
                 ; 0001 03C7         readposition();//doc RF cap nhat ai robot
                 ; 0001 03C8         IRFL=read_adc(4);
                 ; 0001 03C9         IRFR=read_adc(5);
                 ; 0001 03CA 
                 ; 0001 03CB //        if((IRFL<300)&&(IRFR<300))
                 ; 0001 03CC //        {
                 ; 0001 03CD //            vMLlui(20);vMRlui(20);
                 ; 0001 03CE //            delay_ms(100);
                 ; 0001 03CF //        }else
                 ; 0001 03D0 //        {
                 ; 0001 03D1 //            if (IRFL>300 && IRFR<300)
                 ; 0001 03D2 //            {
                 ; 0001 03D3 //             vMLlui(22);vMRlui(5);delay_ms(300);
                 ; 0001 03D4 //            }
                 ; 0001 03D5 //            if (IRFL<300 && IRFR>300  )
                 ; 0001 03D6 //            {
                 ; 0001 03D7 //            vMLlui(5);vMRlui(22);delay_ms(300);
                 ; 0001 03D8 //            }
                 ; 0001 03D9 //        }
                 ; 0001 03DA 
                 ; 0001 03DB 
                 ; 0001 03DC         if((IRFL<300)&&(IRFR<300))
                 ; 0001 03DD         {
                 ; 0001 03DE             vMLtoi(22);vMRlui(22);
                 ; 0001 03DF             delay_ms(100);
                 ; 0001 03E0         }
                 ; 0001 03E1 
                 ; 0001 03E2         if (IRFL>300 && IRFR<300)
                 ; 0001 03E3         {
                 ; 0001 03E4             vMLlui(0);vMRlui(22);delay_ms(300);
                 ; 0001 03E5         }
                 ; 0001 03E6         if (IRFR>300 && IRFL<300 )
                 ; 0001 03E7         {
                 ; 0001 03E8             vMLlui(22);vMRlui(0);delay_ms(300);
                 ; 0001 03E9         }
                 ; 0001 03EA 
                 ; 0001 03EB         LEDBR=!LEDBR;
                 ; 0001 03EC         //delay_ms(10);
                 ; 0001 03ED     }
                 ; 0001 03EE }
                 ;void runEscBlindSpot()
                 ; 0001 03F0 {
                 ; 0001 03F1     //PHUC
                 ; 0001 03F2     while(cmdCtrlRobot==3)
                 ; 0001 03F3     {
                 ; 0001 03F4         DDRA    = 0x00;
                 ; 0001 03F5         PORTA   = 0x00;
                 ; 0001 03F6         readposition();//doc RF cap nhat ai robot
                 ; 0001 03F7         IRFL=read_adc(4);
                 ; 0001 03F8         IRFR=read_adc(5);
                 ; 0001 03F9         if (IRFL>300 && IRFR<300)
                 ; 0001 03FA         {
                 ; 0001 03FB             vMLlui(0);vMRlui(22);delay_ms(300);
                 ; 0001 03FC         }
                 ; 0001 03FD         if (IRFR>300 && IRFL<300 )
                 ; 0001 03FE         {
                 ; 0001 03FF             vMLlui(22);vMRlui(0);delay_ms(300);
                 ; 0001 0400         }
                 ; 0001 0401 
                 ; 0001 0402         if((IRFL<300)&&(IRFR<300))
                 ; 0001 0403         {
                 ; 0001 0404             vMLtoi(20);vMRtoi(20);
                 ; 0001 0405             delay_ms(20);
                 ; 0001 0406         }
                 ; 0001 0407 
                 ; 0001 0408 //        if((IRFL<300)&&(IRFR<300))
                 ; 0001 0409 //        {
                 ; 0001 040A //            vMLlui(20);vMRlui(20);
                 ; 0001 040B //            delay_ms(100);
                 ; 0001 040C //        }else
                 ; 0001 040D //        {
                 ; 0001 040E //            if (IRFL>300 && IRFR<300)
                 ; 0001 040F //            {
                 ; 0001 0410 //             vMLlui(22);vMRlui(5);delay_ms(300);
                 ; 0001 0411 //            }
                 ; 0001 0412 //            if (IRFL<300 && IRFR>300  )
                 ; 0001 0413 //            {
                 ; 0001 0414 //            vMLlui(5);vMRlui(22);delay_ms(300);
                 ; 0001 0415 //            }
                 ; 0001 0416 //        }
                 ; 0001 0417 
                 ; 0001 0418         LEDR=!LEDR;
                 ; 0001 0419         //delay_ms(10);
                 ; 0001 041A     }
                 ; 0001 041B }
                 ;
                 ;void runEscBlindSpotsethome()
                 ; 0001 041E {
                 ; 0001 041F     //PHUC
                 ; 0001 0420     while(cmdCtrlRobot==6)
                 ; 0001 0421     {
                 ; 0001 0422         DDRA    = 0x00;
                 ; 0001 0423         PORTA   = 0x00;
                 ; 0001 0424         readposition();//doc RF cap nhat ai robot
                 ; 0001 0425         IRFL=read_adc(4);
                 ; 0001 0426         IRFR=read_adc(5);
                 ; 0001 0427         if (IRFL>300 && IRFR<300)
                 ; 0001 0428         {
                 ; 0001 0429             vMLlui(0);vMRlui(22);delay_ms(300);
                 ; 0001 042A         }
                 ; 0001 042B         if (IRFR>300 && IRFL<300 )
                 ; 0001 042C         {
                 ; 0001 042D             vMLlui(22);vMRlui(0);delay_ms(300);
                 ; 0001 042E         }
                 ; 0001 042F 
                 ; 0001 0430         if((IRFL<300)&&(IRFR<300))
                 ; 0001 0431         {
                 ; 0001 0432             vMLtoi(20);vMRtoi(20);
                 ; 0001 0433             delay_ms(10);
                 ; 0001 0434         }
                 ; 0001 0435 
                 ; 0001 0436         LEDR=!LEDR;
                 ; 0001 0437         //delay_ms(10);
                 ; 0001 0438     }
                 ; 0001 0439 }
                 ;
                 ;//========================================================
                 ;// SET HOME  vi tri robot, de chuan bi cho tran dau       PHUC//
                 ;//========================================================
                 ;int sethomeRB()
                 ; 0001 043F {
                 ; 0001 0440        while(flagsethome==0)
                 ; 0001 0441        {
                 ; 0001 0442             LEDL=!LEDL;
                 ; 0001 0443               //PHUC SH
                 ; 0001 0444             if(readposition()==1)//co du lieu moi
                 ; 0001 0445             {
                 ; 0001 0446                     //hc(3,40);wn16s(cmdCtrlRobot);
                 ; 0001 0447                     if(cmdCtrlRobot==1)      // dung ma lenh stop chuong trinh
                 ; 0001 0448                     {
                 ; 0001 0449                         flagsethome=0;
                 ; 0001 044A                          return 0;
                 ; 0001 044B                     }
                 ; 0001 044C 
                 ; 0001 044D                     if(cmdCtrlRobot==2 || cmdCtrlRobot==3 || cmdCtrlRobot==4)      // dung ma lenh stop chuong trinh
                 ; 0001 044E                     {
                 ; 0001 044F                         flagsethome=0;
                 ; 0001 0450                         return 0;
                 ; 0001 0451                     }
                 ; 0001 0452 
                 ; 0001 0453                     if(cmdCtrlRobot==5)  //sethome robot
                 ; 0001 0454                     {
                 ; 0001 0455 
                 ; 0001 0456                         calcvitri(rbctrlHomeX,rbctrlHomeY);
                 ; 0001 0457                         if(distance>100) //chay den vi tri
                 ; 0001 0458                         {
                 ; 0001 0459                             if(errangle>18 || errangle<-18 )
                 ; 0001 045A                             {
                 ; 0001 045B                             int nv = errangle*27/180 ;
                 ; 0001 045C                             int verrangle = calcVangle(errangle);
                 ; 0001 045D                             ctrRobotXoay(nv,verrangle);
                 ;	nv -> Y+2
                 ;	verrangle -> Y+0
                 ; 0001 045E                             delay_ms(1);
                 ; 0001 045F                             }else
                 ; 0001 0460                             {
                 ; 0001 0461                             //1xung = 3.14 * 40/24 =5.22
                 ; 0001 0462                             ctrRobottoi(distance/5.22,15);
                 ; 0001 0463                             // verranglekisum=0;//RESET I.
                 ; 0001 0464                             }
                 ; 0001 0465                         }
                 ; 0001 0466                         else //XOAY DUNG HUONG
                 ; 0001 0467                         {
                 ; 0001 0468                             setRobotAngleX=10*cos(rbctrlHomeAngle*M_PI/180);
                 ; 0001 0469                             setRobotAngleY=10*sin(rbctrlHomeAngle*M_PI/180);;
                 ; 0001 046A                             calcvitri(robotctrl.x + setRobotAngleX,robotctrl.y + setRobotAngleY);
                 ; 0001 046B                             if(errangle>90 || errangle<-90 )
                 ; 0001 046C                              {
                 ; 0001 046D 
                 ; 0001 046E                                int nv = errangle*27/180 ;
                 ; 0001 046F                                int verrangle = calcVangle(errangle);
                 ; 0001 0470                                ctrRobotXoay(nv,verrangle);
                 ;	nv -> Y+2
                 ;	verrangle -> Y+0
                 ; 0001 0471                                delay_ms(1);
                 ; 0001 0472                              }else
                 ; 0001 0473                              {
                 ; 0001 0474 
                 ; 0001 0475                                  verranglekisum=0;//RESET I.
                 ; 0001 0476                                  flaghuongtrue=0;
                 ; 0001 0477                                  flagsethome=1;  // bao da set home khong can set nua
                 ; 0001 0478                                  vMRstop();
                 ; 0001 0479                                  vMLstop();
                 ; 0001 047A                                   return 0;
                 ; 0001 047B 
                 ; 0001 047C                              }
                 ; 0001 047D                         }
                 ; 0001 047E 
                 ; 0001 047F                     }
                 ; 0001 0480 
                 ; 0001 0481                     if(cmdCtrlRobot==7)  //sethome IS STUCKED
                 ; 0001 0482                     {
                 ; 0001 0483 
                 ; 0001 0484                        cntstuckRB++;
                 ; 0001 0485                        if(cntstuckRB > 2)
                 ; 0001 0486                        {
                 ; 0001 0487                          runEscStucksethome();
                 ; 0001 0488                          cntstuckRB=0;
                 ; 0001 0489                        }
                 ; 0001 048A                     }
                 ; 0001 048B 
                 ; 0001 048C                     if(cmdCtrlRobot==6) //sethome IS //roi vao diem mu (blind spot) , mat vi tri hay huong
                 ; 0001 048D                     {
                 ; 0001 048E                        LEDBL=1;
                 ; 0001 048F                        cntunlookRB++;
                 ; 0001 0490                        if(cntunlookRB > 2)
                 ; 0001 0491                        {
                 ; 0001 0492                          runEscBlindSpotsethome();
                 ; 0001 0493                          cntunlookRB=0;
                 ; 0001 0494 
                 ; 0001 0495                        }
                 ; 0001 0496 
                 ; 0001 0497                     }
                 ; 0001 0498 
                 ; 0001 0499 
                 ; 0001 049A             }
                 ; 0001 049B 
                 ; 0001 049C             LEDR=!LEDR;
                 ; 0001 049D             wc('d');
                 ; 0001 049E 
                 ; 0001 049F        }
                 ; 0001 04A0        return 0;
                 ; 0001 04A1 
                 ; 0001 04A2 }
                 ;
                 ;int codePenalty()
                 ; 0001 04A5 {
                 ; 0001 04A6    // chay den vi tri duoc dat truoc, sau do da banh 1 lan
                 ; 0001 04A7       //PHUC SH
                 ; 0001 04A8       if(readposition()==1)//co du lieu moi
                 ; 0001 04A9       {
                 ; 0001 04AA            if(cmdCtrlRobot==8)  //set vi tri penalty robot
                 ; 0001 04AB             {
                 ; 0001 04AC                 calcvitri(rbctrlPenaltyX,rbctrlPenaltyY);
                 ; 0001 04AD                 if(distance>50) //chay den vi tri
                 ; 0001 04AE                 {
                 ; 0001 04AF                     if(errangle>18 || errangle<-18 )
                 ; 0001 04B0                     {
                 ; 0001 04B1                     int nv = errangle*27/180 ;
                 ; 0001 04B2                     int verrangle = calcVangle(errangle);
                 ; 0001 04B3                     ctrRobotXoay(nv,verrangle);
                 ;	nv -> Y+2
                 ;	verrangle -> Y+0
                 ; 0001 04B4                     delay_ms(1);
                 ; 0001 04B5                     }else
                 ; 0001 04B6                     {
                 ; 0001 04B7                     //1xung = 3.14 * 40/24 =5.22
                 ; 0001 04B8                     ctrRobottoi(distance/5.22,15);
                 ; 0001 04B9                     // verranglekisum=0;//RESET I.
                 ; 0001 04BA                     }
                 ; 0001 04BB                 }
                 ; 0001 04BC                 else //XOAY DUNG HUONG
                 ; 0001 04BD                 {
                 ; 0001 04BE                     setRobotAngleX=10*cos(rbctrlPenaltyAngle*M_PI/180);
                 ; 0001 04BF                     setRobotAngleY=10*sin(rbctrlPenaltyAngle*M_PI/180);;
                 ; 0001 04C0                     calcvitri(robotctrl.x + setRobotAngleX,robotctrl.y + setRobotAngleY);
                 ; 0001 04C1                     if(errangle>10 || errangle<-10 )
                 ; 0001 04C2                      {
                 ; 0001 04C3 
                 ; 0001 04C4                        int nv = errangle*27/180 ;
                 ; 0001 04C5                        int verrangle = calcVangle(errangle);
                 ; 0001 04C6                        ctrRobotXoay(nv,verrangle);
                 ;	nv -> Y+2
                 ;	verrangle -> Y+0
                 ; 0001 04C7                        delay_ms(1);
                 ; 0001 04C8                      }else
                 ; 0001 04C9                      {
                 ; 0001 04CA 
                 ; 0001 04CB                          verranglekisum=0;//RESET I.
                 ; 0001 04CC                          flaghuongtrue=0;
                 ; 0001 04CD                          flagsethome=1;  // bao da set vitri penalty
                 ; 0001 04CE                          while(cmdCtrlRobot!=2) //cho nhan nut start
                 ; 0001 04CF                          {
                 ; 0001 04D0                             readposition();
                 ; 0001 04D1                          }
                 ; 0001 04D2                          // da banh
                 ; 0001 04D3                          vMRtoi(22);
                 ; 0001 04D4                          vMLtoi(22);
                 ; 0001 04D5                          delay_ms(1000);
                 ; 0001 04D6                          vMRlui(10);
                 ; 0001 04D7                          vMLlui(10);
                 ; 0001 04D8                          delay_ms(1000);
                 ; 0001 04D9                          vMRstop();
                 ; 0001 04DA                          vMLstop();
                 ; 0001 04DB                           return 0;
                 ; 0001 04DC 
                 ; 0001 04DD                      }
                 ; 0001 04DE                 }
                 ; 0001 04DF 
                 ; 0001 04E0             }
                 ; 0001 04E1       }
                 ; 0001 04E2 
                 ; 0001 04E3 }
                 ;
                 ;int macdinh()
                 ; 0001 04E6 {
                 ; 0001 04E7 
                 ; 0001 04E8      if(readposition()==1)//co du lieu moi
                 ; 0001 04E9       {
                 ; 0001 04EA            if(cmdCtrlRobot==5)  //set vi tri penalty robot
                 ; 0001 04EB             {
                 ; 0001 04EC                 calcvitri( rbctrlHomeX, rbctrlHomeY);
                 ; 0001 04ED                 if(distance>50) //chay den vi tri
                 ; 0001 04EE                 {
                 ; 0001 04EF                     if(errangle>18 || errangle<-18 )
                 ; 0001 04F0                     {
                 ; 0001 04F1                     int nv = errangle*27/180 ;
                 ; 0001 04F2                     int verrangle = calcVangle(errangle);
                 ; 0001 04F3                     ctrRobotXoay(nv,verrangle);
                 ;	nv -> Y+2
                 ;	verrangle -> Y+0
                 ; 0001 04F4                     delay_ms(1);
                 ; 0001 04F5                     }else
                 ; 0001 04F6                     {
                 ; 0001 04F7                     //1xung = 3.14 * 40/24 =5.22
                 ; 0001 04F8                     ctrRobottoi(distance/5.22,15);
                 ; 0001 04F9                     // verranglekisum=0;//RESET I.
                 ; 0001 04FA                     }
                 ; 0001 04FB                 }
                 ; 0001 04FC //                else //XOAY DUNG HUONG
                 ; 0001 04FD //                {
                 ; 0001 04FE //                    setRobotAngleX=10*cos(rbctrlHomeAngle*M_PI/180);
                 ; 0001 04FF //                    setRobotAngleY=10*sin(rbctrlHomeAngle*M_PI/180);;
                 ; 0001 0500 //                    calcvitri(robotctrl.x + setRobotAngleX,robotctrl.y + setRobotAngleY);
                 ; 0001 0501 //                    if(errangle>10 || errangle<-10 )
                 ; 0001 0502 //                     {
                 ; 0001 0503 //
                 ; 0001 0504 //                       int nv = errangle*27/180 ;
                 ; 0001 0505 //                       int verrangle = calcVangle(errangle);
                 ; 0001 0506 //                       ctrRobotXoay(nv,verrangle);
                 ; 0001 0507 //                       delay_ms(1);
                 ; 0001 0508 //                     }
                 ; 0001 0509 //                     else
                 ; 0001 050A //                     {
                 ; 0001 050B //                                verranglekisum=0;//RESET I.
                 ; 0001 050C //                                flaghuongtrue=0;
                 ; 0001 050D //                                 flagsethome=1;  // bao da set home khong can set nua
                 ; 0001 050E //                                 vMRstop();
                 ; 0001 050F //                                 vMLstop();
                 ; 0001 0510 //                                  return 0;
                 ; 0001 0511 //                     }
                 ; 0001 0512 //                }
                 ; 0001 0513 //
                 ; 0001 0514             }
                 ; 0001 0515       }
                 ; 0001 0516 
                 ; 0001 0517 
                 ; 0001 0518 }
                 ;void settoadoHomRB()
                 ; 0001 051A {
                 ; 0001 051B     switch(ROBOT_ID)
                 ; 0001 051C     {
                 ; 0001 051D     //PHUC
                 ; 0001 051E        case 1:
                 ; 0001 051F 
                 ; 0001 0520 
                 ; 0001 0521             rbctrlPenaltyX = 0;
                 ; 0001 0522             rbctrlPenaltyY = 0;
                 ; 0001 0523 
                 ; 0001 0524             if(SAN_ID==1)
                 ; 0001 0525             {
                 ; 0001 0526               rbctrlPenaltyAngle = 179;
                 ; 0001 0527               rbctrlHomeAngle = 179 ;
                 ; 0001 0528               rbctrlHomeX = 269.7 ;
                 ; 0001 0529               rbctrlHomeY = 1.7  ;
                 ; 0001 052A               setRobotXmin=80;
                 ; 0001 052B               setRobotXmax=260;
                 ; 0001 052C             }
                 ; 0001 052D             else
                 ; 0001 052E             {
                 ; 0001 052F               rbctrlPenaltyAngle = -15;
                 ; 0001 0530               rbctrlHomeAngle = -15 ;
                 ; 0001 0531               rbctrlHomeX =-226.1 ;
                 ; 0001 0532               rbctrlHomeY = 1.6  ;
                 ; 0001 0533               setRobotXmin=-260;
                 ; 0001 0534               setRobotXmax=-80;
                 ; 0001 0535             }
                 ; 0001 0536        break;
                 ; 0001 0537        case 2:
                 ; 0001 0538 
                 ; 0001 0539 
                 ; 0001 053A             rbctrlPenaltyX=0;
                 ; 0001 053B             rbctrlPenaltyY=0;
                 ; 0001 053C 
                 ; 0001 053D             if(SAN_ID==1)
                 ; 0001 053E             {
                 ; 0001 053F               rbctrlPenaltyAngle = 179;
                 ; 0001 0540               rbctrlHomeAngle = 179 ;
                 ; 0001 0541               rbctrlHomeX =66.0 ;
                 ; 0001 0542               rbctrlHomeY = 79.4  ;
                 ; 0001 0543               setRobotXmin=-270;
                 ; 0001 0544               setRobotXmax=270;
                 ; 0001 0545             }
                 ; 0001 0546             else
                 ; 0001 0547             {
                 ; 0001 0548               rbctrlPenaltyAngle = -15;
                 ; 0001 0549               rbctrlHomeAngle = -15  ;
                 ; 0001 054A               rbctrlHomeX =-44.3 ;
                 ; 0001 054B               rbctrlHomeY = 82.7  ;
                 ; 0001 054C               setRobotXmin=-270;
                 ; 0001 054D               setRobotXmax=270;
                 ; 0001 054E             }
                 ; 0001 054F        break;
                 ; 0001 0550        case 3:
                 ; 0001 0551 
                 ; 0001 0552 
                 ; 0001 0553             rbctrlPenaltyX = 0;
                 ; 0001 0554             rbctrlPenaltyY = 0;
                 ; 0001 0555             rbctrlPenaltyAngle = -15;
                 ; 0001 0556             if(SAN_ID==1)
                 ; 0001 0557             {
                 ; 0001 0558               rbctrlPenaltyAngle = 179;
                 ; 0001 0559               rbctrlHomeAngle = 179 ;
                 ; 0001 055A               rbctrlHomeX =54.1 ;
                 ; 0001 055B               rbctrlHomeY = -99.9  ;
                 ; 0001 055C               setRobotXmin=-270;
                 ; 0001 055D               setRobotXmax=20;
                 ; 0001 055E             }
                 ; 0001 055F             else
                 ; 0001 0560             {
                 ; 0001 0561               rbctrlPenaltyAngle = -15;
                 ; 0001 0562               rbctrlHomeAngle = -15  ;
                 ; 0001 0563               rbctrlHomeX =-53.5 ;
                 ; 0001 0564               rbctrlHomeY =  -93.8 ;
                 ; 0001 0565               setRobotXmin=-20;
                 ; 0001 0566               setRobotXmax=270;
                 ; 0001 0567             }
                 ; 0001 0568        break;
                 ; 0001 0569        case 4:
                 ; 0001 056A 
                 ; 0001 056B             rbctrlPenaltyX=0;
                 ; 0001 056C             rbctrlPenaltyY=0;
                 ; 0001 056D 
                 ; 0001 056E              if(SAN_ID==1)
                 ; 0001 056F             {
                 ; 0001 0570               rbctrlPenaltyAngle = 179;
                 ; 0001 0571               rbctrlHomeAngle = 179 ;
                 ; 0001 0572               rbctrlHomeX = 269.7 ;
                 ; 0001 0573               rbctrlHomeY = 1.7  ;
                 ; 0001 0574               setRobotXmin=80;
                 ; 0001 0575               setRobotXmax=260;
                 ; 0001 0576             }
                 ; 0001 0577             else
                 ; 0001 0578             {
                 ; 0001 0579               rbctrlPenaltyAngle = -15;
                 ; 0001 057A               rbctrlHomeAngle = -15  ;
                 ; 0001 057B               rbctrlHomeX =-226.1 ;
                 ; 0001 057C               rbctrlHomeY = 1.6  ;
                 ; 0001 057D               setRobotXmin=-260;
                 ; 0001 057E               setRobotXmax=-80;
                 ; 0001 057F             }
                 ; 0001 0580        break;
                 ; 0001 0581        case 5:
                 ; 0001 0582 
                 ; 0001 0583             rbctrlPenaltyX = 0;
                 ; 0001 0584             rbctrlPenaltyY = 0;
                 ; 0001 0585              if(SAN_ID==1)
                 ; 0001 0586             {
                 ; 0001 0587                 rbctrlPenaltyAngle = 179;
                 ; 0001 0588                rbctrlHomeAngle = 179 ;
                 ; 0001 0589                rbctrlHomeX =-242 ; //  66
                 ; 0001 058A               rbctrlHomeY = 10.2  ;  //  79.4
                 ; 0001 058B               setRobotXmin=-270;
                 ; 0001 058C               setRobotXmax=270;
                 ; 0001 058D             }
                 ; 0001 058E             else
                 ; 0001 058F             {
                 ; 0001 0590               rbctrlPenaltyAngle = -15;
                 ; 0001 0591               rbctrlHomeAngle = -15  ;
                 ; 0001 0592               rbctrlHomeX =242 ;
                 ; 0001 0593               rbctrlHomeY = -10.2  ;
                 ; 0001 0594               setRobotXmin=-100; //-270
                 ; 0001 0595               setRobotXmax=100;  //270
                 ; 0001 0596             }
                 ; 0001 0597        break;
                 ; 0001 0598        case 6:
                 ; 0001 0599 
                 ; 0001 059A 
                 ; 0001 059B             rbctrlPenaltyX = 0;
                 ; 0001 059C             rbctrlPenaltyY = 0;
                 ; 0001 059D             if(SAN_ID==1)
                 ; 0001 059E             {
                 ; 0001 059F               rbctrlPenaltyAngle = 179;
                 ; 0001 05A0               rbctrlHomeAngle = 179 ;
                 ; 0001 05A1               rbctrlHomeX =-92 ;   //54.1
                 ; 0001 05A2               rbctrlHomeY = 3  ;  // -99.9
                 ; 0001 05A3               setRobotXmin=-270;
                 ; 0001 05A4               setRobotXmax=270;//20
                 ; 0001 05A5             }
                 ; 0001 05A6             else
                 ; 0001 05A7             {
                 ; 0001 05A8               rbctrlPenaltyAngle = -15;
                 ; 0001 05A9               rbctrlHomeAngle = -15  ;
                 ; 0001 05AA               rbctrlHomeX =92 ;    //-53.5
                 ; 0001 05AB               rbctrlHomeY = -3 ;  //-93.8
                 ; 0001 05AC               setRobotXmin=-270;    //-20
                 ; 0001 05AD               setRobotXmax=270;
                 ; 0001 05AE             }
                 ; 0001 05AF        break;
                 ; 0001 05B0 
                 ; 0001 05B1 
                 ; 0001 05B2     }
                 ; 0001 05B3 }
                 ;//=======================================================
                 ;// Tinh luc theo goc quay de dieu khien robot
                 ;int calcVangle(int angle)
                 ; 0001 05B7 {
                 ; 0001 05B8     int verrangle=0;
                 ; 0001 05B9     //tinh thanh phan I
                 ; 0001 05BA     verranglekisum = verranglekisum + angle/20;
                 ;	angle -> Y+2
                 ;	verrangle -> R16,R17
                 ; 0001 05BB     if(verranglekisum>15)verranglekisum = 15;
                 ; 0001 05BC     if(verranglekisum<-15)verranglekisum = -15;
                 ; 0001 05BD     //tinh thanh phan dieu khien
                 ; 0001 05BE     verrangle = 10 + angle/12 + verranglekisum ;
                 ; 0001 05BF     //gioi han bao hoa
                 ; 0001 05C0     if(verrangle<0) verrangle=-verrangle;//lay tri tuyet doi cua van toc v dieu khien
                 ; 0001 05C1     if(verrangle>20) verrangle = 20;
                 ; 0001 05C2     if(verrangle<8) verrangle = 8;
                 ; 0001 05C3     return  verrangle;
                 ; 0001 05C4 }
                 ;//ctrl robot
                 ;void ctrrobot()
                 ; 0001 05C7 {
                 ; 0001 05C8     if(readposition()==1)//co du lieu moi
                 ; 0001 05C9     {
                 ; 0001 05CA           hc(3,40);wn16s(cmdCtrlRobot);
                 ; 0001 05CB //        hc(4,40);wn16s(idRobot);
                 ; 0001 05CC          //-------------------------------------------------
                 ; 0001 05CD         if(cmdCtrlRobot==8)      // dung ma lenh stop chuong trinh
                 ; 0001 05CE         {
                 ; 0001 05CF             flagsethome=0; //cho phep sethome
                 ; 0001 05D0             while(cmdCtrlRobot==8)
                 ; 0001 05D1             {
                 ; 0001 05D2               codePenalty();
                 ; 0001 05D3             }
                 ; 0001 05D4         }
                 ; 0001 05D5 
                 ; 0001 05D6         if(cmdCtrlRobot==1)      // dung ma lenh stop chuong trinh
                 ; 0001 05D7         {
                 ; 0001 05D8             flagsethome=0; //cho phep sethome
                 ; 0001 05D9             while(cmdCtrlRobot==1)
                 ; 0001 05DA             {
                 ; 0001 05DB               readposition();
                 ; 0001 05DC             }
                 ; 0001 05DD         }
                 ; 0001 05DE 
                 ; 0001 05DF         if(cmdCtrlRobot==5)  //sethome robot
                 ; 0001 05E0         {
                 ; 0001 05E1 
                 ; 0001 05E2            cntsethomeRB++;
                 ; 0001 05E3            if(cntsethomeRB > 2)
                 ; 0001 05E4            {
                 ; 0001 05E5              LEDBR=1;
                 ; 0001 05E6              if (flagsethome == 0) sethomeRB();
                 ; 0001 05E7              cntsethomeRB=0;
                 ; 0001 05E8            }
                 ; 0001 05E9 
                 ; 0001 05EA         }
                 ; 0001 05EB 
                 ; 0001 05EC         if(cmdCtrlRobot==4)  //sethome robot
                 ; 0001 05ED         {
                 ; 0001 05EE            flagsethome=0; //cho phep sethome
                 ; 0001 05EF            cntstuckRB++;
                 ; 0001 05F0            if(cntstuckRB > 2)
                 ; 0001 05F1            {
                 ; 0001 05F2              runEscStuck();
                 ; 0001 05F3              cntstuckRB=0;
                 ; 0001 05F4            }
                 ; 0001 05F5         }
                 ; 0001 05F6 
                 ; 0001 05F7         if(cmdCtrlRobot==3)  //roi vao diem mu (blind spot) , mat vi tri hay huong
                 ; 0001 05F8         {
                 ; 0001 05F9            flagsethome=0; //cho phep sethome
                 ; 0001 05FA            cntunlookRB++;
                 ; 0001 05FB            if(cntunlookRB > 2)
                 ; 0001 05FC            {
                 ; 0001 05FD              runEscBlindSpot();
                 ; 0001 05FE              cntunlookRB=0;
                 ; 0001 05FF            }
                 ; 0001 0600 
                 ; 0001 0601         }
                 ; 0001 0602 
                 ; 0001 0603 
                 ; 0001 0604         //------------------------------------------------
                 ; 0001 0605         if(cmdCtrlRobot==2) {// run chuong trinh
                 ; 0001 0606             flagsethome=0; //cho phep sethome
                 ; 0001 0607             switch(flagtask)
                 ; 0001 0608             {
                 ; 0001 0609               // chay den vi tri duoc set boi nguoi dieu khien
                 ; 0001 060A               case 0:
                 ; 0001 060B                      if(setRobotX < setRobotXmin)   setRobotX =  setRobotXmin;
                 ; 0001 060C                      if(setRobotX >setRobotXmax)    setRobotX =  setRobotXmax;
                 ; 0001 060D                      calcvitri(setRobotX,setRobotY);
                 ; 0001 060E                      if(distance>80) //chay den vi tri
                 ; 0001 060F                      {
                 ; 0001 0610                          if(errangle>18 || errangle<-18 )
                 ; 0001 0611                          {
                 ; 0001 0612                            int nv = errangle*27/180 ;
                 ; 0001 0613                            int verrangle = calcVangle(errangle);
                 ; 0001 0614                            ctrRobotXoay(nv,verrangle);
                 ;	nv -> Y+2
                 ;	verrangle -> Y+0
                 ; 0001 0615                            delay_ms(1);
                 ; 0001 0616                          }else
                 ; 0001 0617                          {
                 ; 0001 0618                            //1xung = 3.14 * 40/24 =5.22
                 ; 0001 0619                            ctrRobottoi(distance/5.22,15);
                 ; 0001 061A                           // verranglekisum=0;//RESET I.
                 ; 0001 061B                          }
                 ; 0001 061C                      }
                 ; 0001 061D                      else
                 ; 0001 061E                      {
                 ; 0001 061F                          flagtask=10;
                 ; 0001 0620                      }
                 ; 0001 0621                      break;
                 ; 0001 0622               // quay dung huong duoc set boi nguoi dieu khien
                 ; 0001 0623               case 1:
                 ; 0001 0624 
                 ; 0001 0625                     calcvitri(robotctrl.x + setRobotAngleX,robotctrl.y + setRobotAngleY);
                 ; 0001 0626                     if(errangle>18 || errangle<-18 )
                 ; 0001 0627                      {
                 ; 0001 0628 
                 ; 0001 0629                        int nv = errangle*27/180 ;
                 ; 0001 062A                        int verrangle = calcVangle(errangle);
                 ; 0001 062B                        ctrRobotXoay(nv,verrangle);
                 ;	nv -> Y+2
                 ;	verrangle -> Y+0
                 ; 0001 062C                       // ctrRobotXoay(nv,10);
                 ; 0001 062D                        delay_ms(1);
                 ; 0001 062E                      }else
                 ; 0001 062F                      {
                 ; 0001 0630                        flaghuongtrue++;
                 ; 0001 0631                        if(flaghuongtrue>3)
                 ; 0001 0632                        {
                 ; 0001 0633                         //verranglekisum=0;//RESET I.
                 ; 0001 0634                          flaghuongtrue=0;
                 ; 0001 0635                          flagtask=10;
                 ; 0001 0636                        }
                 ; 0001 0637 
                 ; 0001 0638                      }
                 ; 0001 0639                     break;
                 ; 0001 063A               // chay den vi tri bong
                 ; 0001 063B               case 2:
                 ; 0001 063C 
                 ; 0001 063D                     //PHUC test    rb1 ,s1
                 ; 0001 063E                     if(robotctrl.ball.x < setRobotXmin)   robotctrl.ball.x =  setRobotXmin;
                 ; 0001 063F                     if(robotctrl.ball.x >setRobotXmax)    robotctrl.ball.x =  setRobotXmax;
                 ; 0001 0640                     calcvitri(robotctrl.ball.x,robotctrl.ball.y);
                 ; 0001 0641 
                 ; 0001 0642                      if(errangle>18 || errangle<-18 )
                 ; 0001 0643                      {
                 ; 0001 0644                        int nv = errangle*27/180 ;
                 ; 0001 0645                        int verrangle = calcVangle(errangle);
                 ; 0001 0646                        ctrRobotXoay(nv,verrangle);
                 ;	nv -> Y+2
                 ;	verrangle -> Y+0
                 ; 0001 0647                        delay_ms(1);
                 ; 0001 0648                      }else
                 ; 0001 0649                      {
                 ; 0001 064A                          //1xung = 3.14 * 40/24 =5.22
                 ; 0001 064B                          if(distance>10) //chay den vi tri
                 ; 0001 064C                          {
                 ; 0001 064D                            ctrRobottoi(distance/5.22,15);
                 ; 0001 064E                            delay_ms(5);
                 ; 0001 064F                          }else
                 ; 0001 0650                          {
                 ; 0001 0651                            flagtask=10;
                 ; 0001 0652                          }
                 ; 0001 0653                         // verranglekisum=0;//RESET I.
                 ; 0001 0654                      }
                 ; 0001 0655 
                 ; 0001 0656                     break;
                 ; 0001 0657               // da bong
                 ; 0001 0658               case 3:
                 ; 0001 0659                     ctrRobottoi(40,22);
                 ; 0001 065A                     delay_ms(400);
                 ; 0001 065B                     ctrRobotlui(40,15);
                 ; 0001 065C                     delay_ms(400);
                 ; 0001 065D                     flagtask = 10;
                 ; 0001 065E                     break;
                 ; 0001 065F               case 10:
                 ; 0001 0660                     vMRtoi(0);
                 ; 0001 0661                     vMLtoi(0);
                 ; 0001 0662                     break;
                 ; 0001 0663               //chay theo bong co dinh huong
                 ; 0001 0664               case 4:
                 ; 0001 0665                     calcvitri(robotctrl.ball.x,robotctrl.ball.y);
                 ; 0001 0666                     if(errangle>18 || errangle<-18 )
                 ; 0001 0667                      {
                 ; 0001 0668 
                 ; 0001 0669                        int nv = errangle*27/180 ;
                 ; 0001 066A                        int verrangle = calcVangle(errangle);
                 ; 0001 066B                        ctrRobotXoay(nv,verrangle);
                 ;	nv -> Y+2
                 ;	verrangle -> Y+0
                 ; 0001 066C                       // ctrRobotXoay(nv,10);
                 ; 0001 066D                        delay_ms(1);
                 ; 0001 066E                      }else
                 ; 0001 066F                      {
                 ; 0001 0670                        flaghuongtrue++;
                 ; 0001 0671                        if(flaghuongtrue>3)
                 ; 0001 0672                        {
                 ; 0001 0673                         //verranglekisum=0;//RESET I.
                 ; 0001 0674                          flaghuongtrue=0;
                 ; 0001 0675                          flagtask=10;
                 ; 0001 0676                        }
                 ; 0001 0677 
                 ; 0001 0678                      }
                 ; 0001 0679                     break;
                 ; 0001 067A            }
                 ; 0001 067B        }//end if(cmdCtrlRobot==2)
                 ; 0001 067C     }else   //khong co tin hieu RF hay khong thay robot
                 ; 0001 067D     {
                 ; 0001 067E          //if(flagunlookRB==1) runEscBlindSpot();
                 ; 0001 067F 
                 ; 0001 0680     }
                 ; 0001 0681 
                 ; 0001 0682 
                 ; 0001 0683 }
                 ;
                 ;void rb_move(float x,float y)
                 ; 0001 0686 {
                 ; 0001 0687    flagtask = 0;
                 ;	x -> Y+4
                 ;	y -> Y+0
                 ; 0001 0688    flagtaskold=flagtask;
                 ; 0001 0689    setRobotX=x;
                 ; 0001 068A    setRobotY=y;
                 ; 0001 068B }
                 ;void rb_rotate(int angle)     // goc xoay so voi truc x cua toa do
                 ; 0001 068D {
                 ; 0001 068E    flagtask = 1;
                 ;	angle -> Y+0
                 ; 0001 068F    flagtaskold=flagtask;
                 ; 0001 0690    setRobotAngleX=10*cos(angle*M_PI/180);
                 ; 0001 0691    setRobotAngleY=10*sin(angle*M_PI/180);;
                 ; 0001 0692 }
                 ;
                 ;void rb_goball()
                 ; 0001 0695 {
                 ; 0001 0696    flagtask = 2;
                 ; 0001 0697    flagtaskold=flagtask;
                 ; 0001 0698 }
                 ;void rb_kick()
                 ; 0001 069A {
                 ; 0001 069B    flagtask = 3;
                 ; 0001 069C    flagtaskold=flagtask;
                 ; 0001 069D }
                 ;int rb_wait(unsigned long int time )
                 ; 0001 069F {
                 ; 0001 06A0    time=time*10;
                 ;	time -> Y+0
                 ; 0001 06A1    while(time--)
                 ; 0001 06A2    {
                 ; 0001 06A3      ctrrobot();
                 ; 0001 06A4      if(flagtask==10) return 1 ;// thuc hien xong nhiem vu
                 ; 0001 06A5    }
                 ; 0001 06A6     return 0;
                 ; 0001 06A7 }
                 ;//========================================================
                 ;// Timer1 overflow interrupt service routine
                 ;// period =1/2khz= 0.5ms
                 ;interrupt [TIM1_OVF] void timer1_ovf_isr(void)
                 ; 0001 06AC {
                 _timer1_ovf_isr:
000543 920a      	ST   -Y,R0
000544 921a      	ST   -Y,R1
000545 92fa      	ST   -Y,R15
000546 936a      	ST   -Y,R22
000547 937a      	ST   -Y,R23
000548 938a      	ST   -Y,R24
000549 939a      	ST   -Y,R25
00054a 93aa      	ST   -Y,R26
00054b 93ba      	ST   -Y,R27
00054c 93ea      	ST   -Y,R30
00054d 93fa      	ST   -Y,R31
00054e b7ef      	IN   R30,SREG
00054f 93ea      	ST   -Y,R30
                 ; 0001 06AD // Place your code here
                 ; 0001 06AE    timerstick++;
000550 e2a9      	LDI  R26,LOW(_timerstick)
000551 e0b5      	LDI  R27,HIGH(_timerstick)
000552 940e 10e5 	CALL SUBOPT_0x14
                 ; 0001 06AF    timerstickdis++;
000554 e2ab      	LDI  R26,LOW(_timerstickdis)
000555 e0b5      	LDI  R27,HIGH(_timerstickdis)
000556 940e 10e5 	CALL SUBOPT_0x14
                 ; 0001 06B0    timerstickang++;
000558 e2ad      	LDI  R26,LOW(_timerstickang)
000559 e0b5      	LDI  R27,HIGH(_timerstickang)
00055a 940e 10e5 	CALL SUBOPT_0x14
                 ; 0001 06B1    timerstickctr++;
00055c e2af      	LDI  R26,LOW(_timerstickctr)
00055d e0b5      	LDI  R27,HIGH(_timerstickctr)
00055e 940e 10e5 	CALL SUBOPT_0x14
                 ; 0001 06B2  #ifdef CtrVelocity
                 ; 0001 06B3  // dieu khien van toc
                 ; 0001 06B4    if(timerstick>250)    // 125ms/0.5ms=250 : dung chu ki lay mau = 125 ms
000560 91a0 0529 	LDS  R26,_timerstick
000562 91b0 052a 	LDS  R27,_timerstick+1
000564 3fab      	CPI  R26,LOW(0xFB)
000565 e0e0      	LDI  R30,HIGH(0xFB)
000566 07be      	CPC  R27,R30
000567 f410      	BRSH PC+3
000568 940c 0662 	JMP _0x20151
                 ; 0001 06B5    {
                 ; 0001 06B6      int eR=0,eL=0;
                 ; 0001 06B7 
                 ; 0001 06B8      //-------------------------------------------
                 ; 0001 06B9      //cap nhat van toc
                 ; 0001 06BA      vQER = (QER-oldQER);     //(xung / 10ms)
00056a 9724      	SBIW R28,4
00056b 940e 10eb 	CALL SUBOPT_0x15
00056d e0e0      	LDI  R30,LOW(0)
00056e 83ea      	STD  Y+2,R30
00056f 83eb      	STD  Y+3,R30
                 ;	eR -> Y+2
                 ;	eL -> Y+0
000570 91a0 0537 	LDS  R26,_oldQER
000572 91b0 0538 	LDS  R27,_oldQER+1
000574 940e 10ef 	CALL SUBOPT_0x16
000576 1bea      	SUB  R30,R26
000577 0bfb      	SBC  R31,R27
000578 93e0 0533 	STS  _vQER,R30
00057a 93f0 0534 	STS  _vQER+1,R31
                 ; 0001 06BB      vQEL = (QEL-oldQEL);     //(xung /10ms)
00057c 91a0 0535 	LDS  R26,_oldQEL
00057e 91b0 0536 	LDS  R27,_oldQEL+1
000580 940e 10f4 	CALL SUBOPT_0x17
000582 1bea      	SUB  R30,R26
000583 0bfb      	SBC  R31,R27
000584 93e0 0531 	STS  _vQEL,R30
000586 93f0 0532 	STS  _vQEL+1,R31
                 ; 0001 06BC      oldQEL=QEL;
000588 940e 10f4 	CALL SUBOPT_0x17
00058a 93e0 0535 	STS  _oldQEL,R30
00058c 93f0 0536 	STS  _oldQEL+1,R31
                 ; 0001 06BD      oldQER=QER;
00058e 940e 10ef 	CALL SUBOPT_0x16
000590 93e0 0537 	STS  _oldQER,R30
000592 93f0 0538 	STS  _oldQER+1,R31
                 ; 0001 06BE      timerstick=0;
000594 e0e0      	LDI  R30,LOW(0)
000595 93e0 0529 	STS  _timerstick,R30
000597 93e0 052a 	STS  _timerstick+1,R30
                 ; 0001 06BF 
                 ; 0001 06C0      //--------------------------------------------
                 ; 0001 06C1      //tinh PID van toc
                 ; 0001 06C2      //--------------------------------------------
                 ; 0001 06C3      eR=svQER-vQER;
000599 91a0 0533 	LDS  R26,_vQER
00059b 91b0 0534 	LDS  R27,_vQER+1
00059d 91e0 053b 	LDS  R30,_svQER
00059f 91f0 053c 	LDS  R31,_svQER+1
0005a1 1bea      	SUB  R30,R26
0005a2 0bfb      	SBC  R31,R27
0005a3 83ea      	STD  Y+2,R30
0005a4 83fb      	STD  Y+2+1,R31
                 ; 0001 06C4      //tinh thanh phan I
                 ; 0001 06C5      seRki=seRki+KiR*eR;
0005a5 91a0 0547 	LDS  R26,_KiR
0005a7 91b0 0548 	LDS  R27,_KiR+1
0005a9 940e 1469 	CALL __MULW12
0005ab 940e 10f9 	CALL SUBOPT_0x18
0005ad 0fea      	ADD  R30,R26
0005ae 1ffb      	ADC  R31,R27
0005af 940e 10fe 	CALL SUBOPT_0x19
                 ; 0001 06C6      if(seRki>100) seRki=100;
0005b1 940e 10f9 	CALL SUBOPT_0x18
0005b3 36a5      	CPI  R26,LOW(0x65)
0005b4 e0e0      	LDI  R30,HIGH(0x65)
0005b5 07be      	CPC  R27,R30
0005b6 f024      	BRLT _0x20152
0005b7 e6e4      	LDI  R30,LOW(100)
0005b8 e0f0      	LDI  R31,HIGH(100)
0005b9 940e 10fe 	CALL SUBOPT_0x19
                 ; 0001 06C7      if(seRki<-100) seRki = -100;
                 _0x20152:
0005bb 940e 10f9 	CALL SUBOPT_0x18
0005bd 39ac      	CPI  R26,LOW(0xFF9C)
0005be efef      	LDI  R30,HIGH(0xFF9C)
0005bf 07be      	CPC  R27,R30
0005c0 f424      	BRGE _0x20153
0005c1 e9ec      	LDI  R30,LOW(65436)
0005c2 efff      	LDI  R31,HIGH(65436)
0005c3 940e 10fe 	CALL SUBOPT_0x19
                 ; 0001 06C8      //tinh them thanh phan P
                 ; 0001 06C9      uR = 100 + KpR*eR + seRki;
                 _0x20153:
0005c5 81ea      	LDD  R30,Y+2
0005c6 81fb      	LDD  R31,Y+2+1
0005c7 91a0 0545 	LDS  R26,_KpR
0005c9 91b0 0546 	LDS  R27,_KpR+1
0005cb 940e 1469 	CALL __MULW12
0005cd 59ec      	SUBI R30,LOW(-100)
0005ce 4fff      	SBCI R31,HIGH(-100)
0005cf 940e 10f9 	CALL SUBOPT_0x18
0005d1 0fea      	ADD  R30,R26
0005d2 1ffb      	ADC  R31,R27
0005d3 93e0 0543 	STS  _uR,R30
0005d5 93f0 0544 	STS  _uR+1,R31
                 ; 0001 06CA      if(uR>255) uR =255;
0005d7 91a0 0543 	LDS  R26,_uR
0005d9 91b0 0544 	LDS  R27,_uR+1
0005db 30a0      	CPI  R26,LOW(0x100)
0005dc e0e1      	LDI  R30,HIGH(0x100)
0005dd 07be      	CPC  R27,R30
0005de f034      	BRLT _0x20154
0005df efef      	LDI  R30,LOW(255)
0005e0 e0f0      	LDI  R31,HIGH(255)
0005e1 93e0 0543 	STS  _uR,R30
0005e3 93f0 0544 	STS  _uR+1,R31
                 ; 0001 06CB      if(uR<0) uR =0;
                 _0x20154:
0005e5 91a0 0544 	LDS  R26,_uR+1
0005e7 23aa      	TST  R26
0005e8 f42a      	BRPL _0x20155
0005e9 e0e0      	LDI  R30,LOW(0)
0005ea 93e0 0543 	STS  _uR,R30
0005ec 93e0 0544 	STS  _uR+1,R30
                 ; 0001 06CC 
                 ; 0001 06CD      eL=svQEL-vQEL;
                 _0x20155:
0005ee 91a0 0531 	LDS  R26,_vQEL
0005f0 91b0 0532 	LDS  R27,_vQEL+1
0005f2 91e0 0539 	LDS  R30,_svQEL
0005f4 91f0 053a 	LDS  R31,_svQEL+1
0005f6 940e 10b6 	CALL SUBOPT_0xC
                 ; 0001 06CE      //tinh thanh phan I
                 ; 0001 06CF      seLki=seLki+KiL*eL;
0005f8 81e8      	LD   R30,Y
0005f9 81f9      	LDD  R31,Y+1
0005fa 91a0 054b 	LDS  R26,_KiL
0005fc 91b0 054c 	LDS  R27,_KiL+1
0005fe 940e 1469 	CALL __MULW12
000600 940e 1103 	CALL SUBOPT_0x1A
000602 0fea      	ADD  R30,R26
000603 1ffb      	ADC  R31,R27
000604 940e 1108 	CALL SUBOPT_0x1B
                 ; 0001 06D0      if(seLki>100) seLki=100;
000606 940e 1103 	CALL SUBOPT_0x1A
000608 36a5      	CPI  R26,LOW(0x65)
000609 e0e0      	LDI  R30,HIGH(0x65)
00060a 07be      	CPC  R27,R30
00060b f024      	BRLT _0x20156
00060c e6e4      	LDI  R30,LOW(100)
00060d e0f0      	LDI  R31,HIGH(100)
00060e 940e 1108 	CALL SUBOPT_0x1B
                 ; 0001 06D1      if(seLki<-100) seLki = -100;
                 _0x20156:
000610 940e 1103 	CALL SUBOPT_0x1A
000612 39ac      	CPI  R26,LOW(0xFF9C)
000613 efef      	LDI  R30,HIGH(0xFF9C)
000614 07be      	CPC  R27,R30
000615 f424      	BRGE _0x20157
000616 e9ec      	LDI  R30,LOW(65436)
000617 efff      	LDI  R31,HIGH(65436)
000618 940e 1108 	CALL SUBOPT_0x1B
                 ; 0001 06D2      //tinh them thanh phan P
                 ; 0001 06D3      uL = 100 + KpL*eL + seLki;
                 _0x20157:
00061a 81e8      	LD   R30,Y
00061b 81f9      	LDD  R31,Y+1
00061c 91a0 0549 	LDS  R26,_KpL
00061e 91b0 054a 	LDS  R27,_KpL+1
000620 940e 1469 	CALL __MULW12
000622 59ec      	SUBI R30,LOW(-100)
000623 4fff      	SBCI R31,HIGH(-100)
000624 940e 1103 	CALL SUBOPT_0x1A
000626 0fea      	ADD  R30,R26
000627 1ffb      	ADC  R31,R27
000628 93e0 0541 	STS  _uL,R30
00062a 93f0 0542 	STS  _uL+1,R31
                 ; 0001 06D4      if(uL>255) uL =255;
00062c 91a0 0541 	LDS  R26,_uL
00062e 91b0 0542 	LDS  R27,_uL+1
000630 30a0      	CPI  R26,LOW(0x100)
000631 e0e1      	LDI  R30,HIGH(0x100)
000632 07be      	CPC  R27,R30
000633 f034      	BRLT _0x20158
000634 efef      	LDI  R30,LOW(255)
000635 e0f0      	LDI  R31,HIGH(255)
000636 93e0 0541 	STS  _uL,R30
000638 93f0 0542 	STS  _uL+1,R31
                 ; 0001 06D5      if(uL<0) uL =0;
                 _0x20158:
00063a 91a0 0542 	LDS  R26,_uL+1
00063c 23aa      	TST  R26
00063d f42a      	BRPL _0x20159
00063e e0e0      	LDI  R30,LOW(0)
00063f 93e0 0541 	STS  _uL,R30
000641 93e0 0542 	STS  _uL+1,R30
                 ; 0001 06D6 
                 ; 0001 06D7      if(svQER!=0)OCR1B= uR;
                 _0x20159:
000643 91e0 053b 	LDS  R30,_svQER
000645 91f0 053c 	LDS  R31,_svQER+1
000647 9730      	SBIW R30,0
000648 f029      	BREQ _0x2015A
000649 91e0 0543 	LDS  R30,_uR
00064b 91f0 0544 	LDS  R31,_uR+1
00064d c002      	RJMP _0x202E9
                 ; 0001 06D8      else  OCR1B = 0;
                 _0x2015A:
00064e e0e0      	LDI  R30,LOW(0)
00064f e0f0      	LDI  R31,HIGH(0)
                 _0x202E9:
000650 bdf9      	OUT  0x28+1,R31
000651 bde8      	OUT  0x28,R30
                 ; 0001 06D9 
                 ; 0001 06DA      if(svQEL!=0) OCR1A= uL;
000652 91e0 0539 	LDS  R30,_svQEL
000654 91f0 053a 	LDS  R31,_svQEL+1
000656 9730      	SBIW R30,0
000657 f029      	BREQ _0x2015C
000658 91e0 0541 	LDS  R30,_uL
00065a 91f0 0542 	LDS  R31,_uL+1
00065c c002      	RJMP _0x202EA
                 ; 0001 06DB      else  OCR1A = 0;
                 _0x2015C:
00065d e0e0      	LDI  R30,LOW(0)
00065e e0f0      	LDI  R31,HIGH(0)
                 _0x202EA:
00065f bdfb      	OUT  0x2A+1,R31
000660 bdea      	OUT  0x2A,R30
                 ; 0001 06DC 
                 ; 0001 06DD    }
000661 9624      	ADIW R28,4
                 ; 0001 06DE // dieu khien khoang cach
                 ; 0001 06DF   if(timerstickdis>10 && (flagwaitctrRobot==1))
                 _0x20151:
000662 91a0 052b 	LDS  R26,_timerstickdis
000664 91b0 052c 	LDS  R27,_timerstickdis+1
000666 971b      	SBIW R26,11
000667 f020      	BRLO _0x2015F
000668 91a0 0551 	LDS  R26,_flagwaitctrRobot
00066a 30a1      	CPI  R26,LOW(0x1)
00066b f009      	BREQ _0x20160
                 _0x2015F:
00066c c025      	RJMP _0x2015E
                 _0x20160:
                 ; 0001 06E0   {
                 ; 0001 06E1     unsigned int deltad1=0;
                 ; 0001 06E2     deltad1 =(QER + QEL)/2 - oldd;
00066d 9722      	SBIW R28,2
00066e 940e 10eb 	CALL SUBOPT_0x15
                 ;	deltad1 -> Y+0
000670 940e 110d 	CALL SUBOPT_0x1C
000672 91a0 054f 	LDS  R26,_oldd
000674 91b0 0550 	LDS  R27,_oldd+1
000676 940e 10b6 	CALL SUBOPT_0xC
                 ; 0001 06E3     //if(deltad1<0) deltad1=0;// co the am do kieu so
                 ; 0001 06E4     //hc(3,0);ws("            ");
                 ; 0001 06E5     //hc(3,0);wn16s(deltad1);
                 ; 0001 06E6     if(deltad1>sd)
000678 91e0 054d 	LDS  R30,_sd
00067a 91f0 054e 	LDS  R31,_sd+1
00067c 81a8      	LD   R26,Y
00067d 81b9      	LDD  R27,Y+1
00067e 17ea      	CP   R30,R26
00067f 07fb      	CPC  R31,R27
000680 f458      	BRSH _0x20161
                 ; 0001 06E7     {
                 ; 0001 06E8 
                 ; 0001 06E9         vMLstop();
000681 de9a      	RCALL _vMLstop
                 ; 0001 06EA         vMRstop();
000682 deb4      	RCALL _vMRstop
                 ; 0001 06EB         flagwaitctrRobot=0;
000683 e0e0      	LDI  R30,LOW(0)
000684 93e0 0551 	STS  _flagwaitctrRobot,R30
                 ; 0001 06EC         oldd=(QER+QEL)/2;
000686 940e 110d 	CALL SUBOPT_0x1C
000688 93e0 054f 	STS  _oldd,R30
00068a 93f0 0550 	STS  _oldd+1,R31
                 ; 0001 06ED 
                 ; 0001 06EE     }
                 ; 0001 06EF     timerstickdis=0;
                 _0x20161:
00068c e0e0      	LDI  R30,LOW(0)
00068d 93e0 052b 	STS  _timerstickdis,R30
00068f 93e0 052c 	STS  _timerstickdis+1,R30
                 ; 0001 06F0 
                 ; 0001 06F1   }
000691 9622      	ADIW R28,2
                 ; 0001 06F2   // dieu khien  vi tri goc quay
                 ; 0001 06F3   if(timerstickang>10 && (flagwaitctrAngle==1))
                 _0x2015E:
000692 91a0 052d 	LDS  R26,_timerstickang
000694 91b0 052e 	LDS  R27,_timerstickang+1
000696 971b      	SBIW R26,11
000697 f020      	BRLO _0x20163
000698 91a0 0556 	LDS  R26,_flagwaitctrAngle
00069a 30a1      	CPI  R26,LOW(0x1)
00069b f009      	BREQ _0x20164
                 _0x20163:
00069c c025      	RJMP _0x20162
                 _0x20164:
                 ; 0001 06F4   {
                 ; 0001 06F5     unsigned int deltaa=0;
                 ; 0001 06F6     deltaa =(QEL) - olda;
00069d 9722      	SBIW R28,2
00069e 940e 10eb 	CALL SUBOPT_0x15
                 ;	deltaa -> Y+0
0006a0 91a0 0554 	LDS  R26,_olda
0006a2 91b0 0555 	LDS  R27,_olda+1
0006a4 940e 10f4 	CALL SUBOPT_0x17
0006a6 940e 10b6 	CALL SUBOPT_0xC
                 ; 0001 06F7 //    hc(4,0);ws("            ");
                 ; 0001 06F8 //    hc(4,0);wn16s(deltaa);
                 ; 0001 06F9     if(deltaa>sa)
0006a8 91e0 0552 	LDS  R30,_sa
0006aa 91f0 0553 	LDS  R31,_sa+1
0006ac 81a8      	LD   R26,Y
0006ad 81b9      	LDD  R27,Y+1
0006ae 17ea      	CP   R30,R26
0006af 07fb      	CPC  R31,R27
0006b0 f458      	BRSH _0x20165
                 ; 0001 06FA     {
                 ; 0001 06FB         vMLstop();
0006b1 de6a      	RCALL _vMLstop
                 ; 0001 06FC         vMRstop();
0006b2 de84      	RCALL _vMRstop
                 ; 0001 06FD         flagwaitctrAngle=0;
0006b3 e0e0      	LDI  R30,LOW(0)
0006b4 93e0 0556 	STS  _flagwaitctrAngle,R30
                 ; 0001 06FE         olda=QEL;
0006b6 940e 10f4 	CALL SUBOPT_0x17
0006b8 93e0 0554 	STS  _olda,R30
0006ba 93f0 0555 	STS  _olda+1,R31
                 ; 0001 06FF     }
                 ; 0001 0700     timerstickang=0;
                 _0x20165:
0006bc e0e0      	LDI  R30,LOW(0)
0006bd 93e0 052d 	STS  _timerstickang,R30
0006bf 93e0 052e 	STS  _timerstickang+1,R30
                 ; 0001 0701   }
0006c1 9622      	ADIW R28,2
                 ; 0001 0702   // dieu khien robot robot
                 ; 0001 0703   if(timerstickctr>1)
                 _0x20162:
0006c2 91a0 052f 	LDS  R26,_timerstickctr
0006c4 91b0 0530 	LDS  R27,_timerstickctr+1
0006c6 9712      	SBIW R26,2
0006c7 f028      	BRLO _0x20166
                 ; 0001 0704   {
                 ; 0001 0705     timerstickctr=0;
0006c8 e0e0      	LDI  R30,LOW(0)
0006c9 93e0 052f 	STS  _timerstickctr,R30
0006cb 93e0 0530 	STS  _timerstickctr+1,R30
                 ; 0001 0706   }
                 ; 0001 0707 #endif
                 ; 0001 0708 }
                 _0x20166:
0006cd 91e9      	LD   R30,Y+
0006ce bfef      	OUT  SREG,R30
0006cf 91f9      	LD   R31,Y+
0006d0 91e9      	LD   R30,Y+
0006d1 91b9      	LD   R27,Y+
0006d2 91a9      	LD   R26,Y+
0006d3 9199      	LD   R25,Y+
0006d4 9189      	LD   R24,Y+
0006d5 9179      	LD   R23,Y+
0006d6 9169      	LD   R22,Y+
0006d7 90f9      	LD   R15,Y+
0006d8 9019      	LD   R1,Y+
0006d9 9009      	LD   R0,Y+
0006da 9518      	RETI
                 ;
                 ;//========================================================
                 ;// read  vi tri robot   PHUC
                 ;//========================================================
                 ;unsigned char testposition()
                 ; 0001 070E {
                 _testposition:
                 ; 0001 070F         unsigned char  i=0;
                 ; 0001 0710         unsigned flagstatus=0;
                 ; 0001 0711 
                 ; 0001 0712    while(keyKT!=0)
0006db 940e 1514 	CALL __SAVELOCR4
                 ;	i -> R17
                 ;	flagstatus -> R18,R19
0006dd e010      	LDI  R17,0
                +
0006de e020     +LDI R18 , LOW ( 0 )
0006df e030     +LDI R19 , HIGH ( 0 )
                 	__GETWRN 18,19,0
                 _0x20167:
0006e0 9b98      	SBIS 0x13,0
0006e1 c0c7      	RJMP _0x20169
                 ; 0001 0713    {
                 ; 0001 0714         if(nRF24L01_RxPacket(RxBuf)==1)         // Neu nhan duoc du lieu
0006e2 ebea      	LDI  R30,LOW(_RxBuf)
0006e3 e0f4      	LDI  R31,HIGH(_RxBuf)
0006e4 93fa      	ST   -Y,R31
0006e5 93ea      	ST   -Y,R30
0006e6 940e 034b 	CALL _nRF24L01_RxPacket
0006e8 30e1      	CPI  R30,LOW(0x1)
0006e9 f011      	BREQ PC+3
0006ea 940c 07a8 	JMP _0x2016A
                 ; 0001 0715         {
                 ; 0001 0716          for( i=0;i<28;i++)
0006ec e010      	LDI  R17,LOW(0)
                 _0x2016C:
0006ed 311c      	CPI  R17,28
0006ee f460      	BRSH _0x2016D
                 ; 0001 0717          {
                 ; 0001 0718              *(uint8_t *) ((uint8_t *)&rb + i)=RxBuf[i];
0006ef 2fa1      	MOV  R26,R17
0006f0 e0b0      	LDI  R27,0
0006f1 53a2      	SUBI R26,LOW(-_rb)
0006f2 4fbc      	SBCI R27,HIGH(-_rb)
0006f3 940e 1089 	CALL SUBOPT_0x8
0006f5 54e6      	SUBI R30,LOW(-_RxBuf)
0006f6 4ffb      	SBCI R31,HIGH(-_RxBuf)
0006f7 81e0      	LD   R30,Z
0006f8 93ec      	ST   X,R30
                 ; 0001 0719          }
0006f9 5f1f      	SUBI R17,-1
0006fa cff2      	RJMP _0x2016C
                 _0x2016D:
                 ; 0001 071A 
                 ; 0001 071B 
                 ; 0001 071C          idRobot = fmod(rb.id,10); // doc id
0006fb 940e 1118 	CALL SUBOPT_0x1D
0006fd 940e 14ec 	CALL __PUTPARD1
0006ff 940e 1121 	CALL SUBOPT_0x1E
000701 940e 14ec 	CALL __PUTPARD1
000703 940e 1004 	CALL _fmod
000705 940e 12a5 	CALL __CFD1U
000707 016f      	MOVW R12,R30
                 ; 0001 071D          cmdCtrlRobot = (int)rb.id/10; // doc ma lenh
000708 940e 1118 	CALL SUBOPT_0x1D
00070a 940e 12a7 	CALL __CFD1
00070c 01df      	MOVW R26,R30
00070d e0ea      	LDI  R30,LOW(10)
00070e e0f0      	LDI  R31,HIGH(10)
00070f 940e 1486 	CALL __DIVW21
000711 015f      	MOVW R10,R30
                 ; 0001 071E          switch (idRobot)
000712 01f6      	MOVW R30,R12
                 ; 0001 071F          {
                 ; 0001 0720               case 1:
000713 30e1      	CPI  R30,LOW(0x1)
000714 e0a0      	LDI  R26,HIGH(0x1)
000715 07fa      	CPC  R31,R26
000716 f429      	BRNE _0x20171
                 ; 0001 0721                   robot11=rb;
000717 ecee      	LDI  R30,LOW(_rb)
000718 e0f3      	LDI  R31,HIGH(_rb)
000719 eeaa      	LDI  R26,LOW(_robot11)
00071a e0b3      	LDI  R27,HIGH(_robot11)
00071b c02c      	RJMP _0x202EB
                 ; 0001 0722                 break;
                 ; 0001 0723               case 2:
                 _0x20171:
00071c 30e2      	CPI  R30,LOW(0x2)
00071d e0a0      	LDI  R26,HIGH(0x2)
00071e 07fa      	CPC  R31,R26
00071f f429      	BRNE _0x20172
                 ; 0001 0724                   robot12=rb;
000720 ecee      	LDI  R30,LOW(_rb)
000721 e0f3      	LDI  R31,HIGH(_rb)
000722 e0a6      	LDI  R26,LOW(_robot12)
000723 e0b4      	LDI  R27,HIGH(_robot12)
000724 c023      	RJMP _0x202EB
                 ; 0001 0725                 break;
                 ; 0001 0726               case 3:
                 _0x20172:
000725 30e3      	CPI  R30,LOW(0x3)
000726 e0a0      	LDI  R26,HIGH(0x3)
000727 07fa      	CPC  R31,R26
000728 f429      	BRNE _0x20173
                 ; 0001 0727 
                 ; 0001 0728                   robot13=rb;
000729 ecee      	LDI  R30,LOW(_rb)
00072a e0f3      	LDI  R31,HIGH(_rb)
00072b e2a2      	LDI  R26,LOW(_robot13)
00072c e0b4      	LDI  R27,HIGH(_robot13)
00072d c01a      	RJMP _0x202EB
                 ; 0001 0729                   break;
                 ; 0001 072A               case 4:
                 _0x20173:
00072e 30e4      	CPI  R30,LOW(0x4)
00072f e0a0      	LDI  R26,HIGH(0x4)
000730 07fa      	CPC  R31,R26
000731 f429      	BRNE _0x20174
                 ; 0001 072B                   robot21=rb;
000732 ecee      	LDI  R30,LOW(_rb)
000733 e0f3      	LDI  R31,HIGH(_rb)
000734 e3ae      	LDI  R26,LOW(_robot21)
000735 e0b4      	LDI  R27,HIGH(_robot21)
000736 c011      	RJMP _0x202EB
                 ; 0001 072C                 break;
                 ; 0001 072D               case 5:
                 _0x20174:
000737 30e5      	CPI  R30,LOW(0x5)
000738 e0a0      	LDI  R26,HIGH(0x5)
000739 07fa      	CPC  R31,R26
00073a f429      	BRNE _0x20175
                 ; 0001 072E                   robot22=rb;
00073b ecee      	LDI  R30,LOW(_rb)
00073c e0f3      	LDI  R31,HIGH(_rb)
00073d e5aa      	LDI  R26,LOW(_robot22)
00073e e0b4      	LDI  R27,HIGH(_robot22)
00073f c008      	RJMP _0x202EB
                 ; 0001 072F                 break;
                 ; 0001 0730               case 6:
                 _0x20175:
000740 30e6      	CPI  R30,LOW(0x6)
000741 e0a0      	LDI  R26,HIGH(0x6)
000742 07fa      	CPC  R31,R26
000743 f439      	BRNE _0x20170
                 ; 0001 0731                   robot23=rb;
000744 ecee      	LDI  R30,LOW(_rb)
000745 e0f3      	LDI  R31,HIGH(_rb)
000746 e7a6      	LDI  R26,LOW(_robot23)
000747 e0b4      	LDI  R27,HIGH(_robot23)
                 _0x202EB:
000748 e18c      	LDI  R24,28
000749 940e 14fe 	CALL __COPYMML
                 ; 0001 0732                 break;
                 ; 0001 0733 
                 ; 0001 0734          }
                 _0x20170:
                 ; 0001 0735          if(idRobot==ROBOT_ID)
00074b e0e5      	LDI  R30,LOW(5)
00074c e0f0      	LDI  R31,HIGH(5)
00074d 15ec      	CP   R30,R12
00074e 05fd      	CPC  R31,R13
00074f f011      	BREQ PC+3
000750 940c 07a8 	JMP _0x20177
                 ; 0001 0736          {
                 ; 0001 0737              LEDR=!LEDR;
000752 9bad      	SBIS 0x15,5
000753 c002      	RJMP _0x20178
000754 98ad      	CBI  0x15,5
000755 c001      	RJMP _0x20179
                 _0x20178:
000756 9aad      	SBI  0x15,5
                 _0x20179:
                 ; 0001 0738              flagstatus=1;
                +
000757 e021     +LDI R18 , LOW ( 1 )
000758 e030     +LDI R19 , HIGH ( 1 )
                 	__GETWRN 18,19,1
                 ; 0001 0739              robotctrl=rb;
000759 ecee      	LDI  R30,LOW(_rb)
00075a e0f3      	LDI  R31,HIGH(_rb)
00075b e9a2      	LDI  R26,LOW(_robotctrl)
00075c e0b4      	LDI  R27,HIGH(_robotctrl)
00075d e18c      	LDI  R24,28
00075e 940e 14fe 	CALL __COPYMML
                 ; 0001 073A              hc(5,40);wn16s(cmdCtrlRobot);
000760 e0e5      	LDI  R30,LOW(5)
000761 e0f0      	LDI  R31,HIGH(5)
000762 940e 1126 	CALL SUBOPT_0x1F
000764 92ba      	ST   -Y,R11
000765 92aa      	ST   -Y,R10
000766 940e 112e 	CALL SUBOPT_0x20
                 ; 0001 073B              hc(4,40);wn16s(idRobot);
000768 940e 1126 	CALL SUBOPT_0x1F
00076a 92da      	ST   -Y,R13
00076b 92ca      	ST   -Y,R12
00076c 940e 1133 	CALL SUBOPT_0x21
                 ; 0001 073C              hc(3,20);wn16s(robotctrl.x);
00076e 940e 113a 	CALL SUBOPT_0x22
                +
000770 91e0 0496+LDS R30 , _robotctrl + ( 4 )
000772 91f0 0497+LDS R31 , _robotctrl + ( 4 ) + 1
000774 9160 0498+LDS R22 , _robotctrl + ( 4 ) + 2
000776 9170 0499+LDS R23 , _robotctrl + ( 4 ) + 3
                 	__GETD1MN _robotctrl,4
000778 940e 1140 	CALL SUBOPT_0x23
                 ; 0001 073D              hc(2,20);wn16s(robotctrl.y);
00077a 940e 1146 	CALL SUBOPT_0x24
00077c 940e 113a 	CALL SUBOPT_0x22
                +
00077e 91e0 049a+LDS R30 , _robotctrl + ( 8 )
000780 91f0 049b+LDS R31 , _robotctrl + ( 8 ) + 1
000782 9160 049c+LDS R22 , _robotctrl + ( 8 ) + 2
000784 9170 049d+LDS R23 , _robotctrl + ( 8 ) + 3
                 	__GETD1MN _robotctrl,8
000786 940e 1140 	CALL SUBOPT_0x23
                 ; 0001 073E              hc(1,1);wn16s(robotctrl.ox);
000788 940e 114b 	CALL SUBOPT_0x25
00078a 940e 114b 	CALL SUBOPT_0x25
00078c dbfa      	RCALL _hc
                +
00078d 91e0 049e+LDS R30 , _robotctrl + ( 12 )
00078f 91f0 049f+LDS R31 , _robotctrl + ( 12 ) + 1
000791 9160 04a0+LDS R22 , _robotctrl + ( 12 ) + 2
000793 9170 04a1+LDS R23 , _robotctrl + ( 12 ) + 3
                 	__GETD1MN _robotctrl,12
000795 940e 1140 	CALL SUBOPT_0x23
                 ; 0001 073F              hc(0,1);wn16s(robotctrl.oy);
000797 940e 1084 	CALL SUBOPT_0x7
000799 940e 114b 	CALL SUBOPT_0x25
00079b dbeb      	RCALL _hc
                +
00079c 91e0 04a2+LDS R30 , _robotctrl + ( 16 )
00079e 91f0 04a3+LDS R31 , _robotctrl + ( 16 ) + 1
0007a0 9160 04a4+LDS R22 , _robotctrl + ( 16 ) + 2
0007a2 9170 04a5+LDS R23 , _robotctrl + ( 16 ) + 3
                 	__GETD1MN _robotctrl,16
0007a4 940e 1140 	CALL SUBOPT_0x23
                 ; 0001 0740              delay_ms(200);
0007a6 940e 1150 	CALL SUBOPT_0x26
                 ; 0001 0741          }
                 ; 0001 0742 
                 ; 0001 0743      }
                 _0x20177:
                 ; 0001 0744    }
                 _0x2016A:
0007a8 cf37      	RJMP _0x20167
                 _0x20169:
                 ; 0001 0745      return flagstatus;
0007a9 2fe2      	MOV  R30,R18
0007aa c0f2      	RJMP _0x20C0003
                 ; 0001 0746 
                 ; 0001 0747 }
                 ;//========================================================
                 ;void robotwall()
                 ; 0001 074A {
                 _robotwall:
                 ; 0001 074B unsigned int demled=0;
                 ; 0001 074C         DDRA    = 0x00;
0007ab 931a      	ST   -Y,R17
0007ac 930a      	ST   -Y,R16
                 ;	demled -> R16,R17
                +
0007ad e000     +LDI R16 , LOW ( 0 )
0007ae e010     +LDI R17 , HIGH ( 0 )
                 	__GETWRN 16,17,0
0007af 940e 1156 	CALL SUBOPT_0x27
                 ; 0001 074D         PORTA   = 0x00;
                 ; 0001 074E 
                 ; 0001 074F         LcdClear();
                 ; 0001 0750         hc(0,10);
0007b1 940e 115c 	CALL SUBOPT_0x28
                 ; 0001 0751         ws ("ROBOT WALL");
                +
0007b3 e6ec     +LDI R30 , LOW ( _0x2017A + ( 0 ) )
0007b4 e0f2     +LDI R31 , HIGH ( _0x2017A + ( 0 ) )
                 	__POINTW1MN _0x2017A,0
0007b5 940e 10bf 	CALL SUBOPT_0xE
                 ; 0001 0752         LEDL=1;LEDR=1;
0007b7 9aac      	SBI  0x15,4
0007b8 9aad      	SBI  0x15,5
                 ; 0001 0753 
                 ; 0001 0754    while(keyKT!=0)
                 _0x2017F:
0007b9 9b98      	SBIS 0x13,0
0007ba c063      	RJMP _0x20181
                 ; 0001 0755    {
                 ; 0001 0756         IRFL=read_adc(4);
0007bb e0e4      	LDI  R30,LOW(4)
0007bc 93ea      	ST   -Y,R30
0007bd dc8c      	RCALL _read_adc
0007be 93e0 051b 	STS  _IRFL,R30
0007c0 93f0 051c 	STS  _IRFL+1,R31
                 ; 0001 0757         IRFR=read_adc(5);
0007c2 e0e5      	LDI  R30,LOW(5)
0007c3 93ea      	ST   -Y,R30
0007c4 dc85      	RCALL _read_adc
0007c5 93e0 051d 	STS  _IRFR,R30
0007c7 93f0 051e 	STS  _IRFR+1,R31
                 ; 0001 0758         hc(1,0) ; wn16(IRFL);
0007c9 940e 114b 	CALL SUBOPT_0x25
0007cb 940e 1084 	CALL SUBOPT_0x7
0007cd dbb9      	RCALL _hc
0007ce 91e0 051b 	LDS  R30,_IRFL
0007d0 91f0 051c 	LDS  R31,_IRFL+1
0007d2 940e 10bb 	CALL SUBOPT_0xD
                 ; 0001 0759         hc(1,42); wn16(IRFR);
0007d4 940e 114b 	CALL SUBOPT_0x25
0007d6 940e 1162 	CALL SUBOPT_0x29
0007d8 91e0 051d 	LDS  R30,_IRFR
0007da 91f0 051e 	LDS  R31,_IRFR+1
0007dc 940e 10bb 	CALL SUBOPT_0xD
                 ; 0001 075A 
                 ; 0001 075B         if (IRFL>250)
0007de 91a0 051b 	LDS  R26,_IRFL
0007e0 91b0 051c 	LDS  R27,_IRFL+1
0007e2 3fab      	CPI  R26,LOW(0xFB)
0007e3 e0e0      	LDI  R30,HIGH(0xFB)
0007e4 07be      	CPC  R27,R30
0007e5 f030      	BRLO _0x20182
                 ; 0001 075C         {
                 ; 0001 075D             vMLlui(22);vMRlui(10);delay_ms(600);
0007e6 e1e6      	LDI  R30,LOW(22)
0007e7 93ea      	ST   -Y,R30
0007e8 dd2d      	RCALL _vMLlui
0007e9 e0ea      	LDI  R30,LOW(10)
0007ea 940e 1168 	CALL SUBOPT_0x2A
                 ; 0001 075E         }
                 ; 0001 075F         if (IRFR>250)
                 _0x20182:
0007ec 91a0 051d 	LDS  R26,_IRFR
0007ee 91b0 051e 	LDS  R27,_IRFR+1
0007f0 3fab      	CPI  R26,LOW(0xFB)
0007f1 e0e0      	LDI  R30,HIGH(0xFB)
0007f2 07be      	CPC  R27,R30
0007f3 f030      	BRLO _0x20183
                 ; 0001 0760         {
                 ; 0001 0761             vMLlui(10);vMRlui(22);delay_ms(600);
0007f4 e0ea      	LDI  R30,LOW(10)
0007f5 93ea      	ST   -Y,R30
0007f6 dd1f      	RCALL _vMLlui
0007f7 e1e6      	LDI  R30,LOW(22)
0007f8 940e 1168 	CALL SUBOPT_0x2A
                 ; 0001 0762         }
                 ; 0001 0763         if((IRFL<300)&(IRFR<300))
                 _0x20183:
0007fa 91a0 051b 	LDS  R26,_IRFL
0007fc 91b0 051c 	LDS  R27,_IRFL+1
0007fe e2ec      	LDI  R30,LOW(300)
0007ff e0f1      	LDI  R31,HIGH(300)
000800 940e 143b 	CALL __LTW12U
000802 2e0e      	MOV  R0,R30
000803 91a0 051d 	LDS  R26,_IRFR
000805 91b0 051e 	LDS  R27,_IRFR+1
000807 e2ec      	LDI  R30,LOW(300)
000808 e0f1      	LDI  R31,HIGH(300)
000809 940e 143b 	CALL __LTW12U
00080b 21e0      	AND  R30,R0
00080c f031      	BREQ _0x20184
                 ; 0001 0764         {
                 ; 0001 0765             vMLtoi(22);vMRtoi(22);
00080d e1e6      	LDI  R30,LOW(22)
00080e 93ea      	ST   -Y,R30
00080f dd00      	RCALL _vMLtoi
000810 e1e6      	LDI  R30,LOW(22)
000811 93ea      	ST   -Y,R30
000812 dd15      	RCALL _vMRtoi
                 ; 0001 0766         }
                 ; 0001 0767 
                 ; 0001 0768        demled++;
                 _0x20184:
                +
000813 5f0f     +SUBI R16 , LOW ( - 1 )
000814 4f1f     +SBCI R17 , HIGH ( - 1 )
                 	__ADDWRN 16,17,1
                 ; 0001 0769        if(demled>50){demled=0;LEDLtoggle(); LEDRtoggle();}
                +
000815 3303     +CPI R16 , LOW ( 51 )
000816 e0e0     +LDI R30 , HIGH ( 51 )
000817 071e     +CPC R17 , R30
                 	__CPWRN 16,17,51
000818 f020      	BRLO _0x20185
                +
000819 e000     +LDI R16 , LOW ( 0 )
00081a e010     +LDI R17 , HIGH ( 0 )
                 	__GETWRN 16,17,0
00081b 940e 1171 	CALL SUBOPT_0x2B
                 ; 0001 076A    }
                 _0x20185:
00081d cf9b      	RJMP _0x2017F
                 _0x20181:
                 ; 0001 076B 
                 ; 0001 076C }
                 _0x20C0005:
00081e 9109      	LD   R16,Y+
00081f 9119      	LD   R17,Y+
000820 9508      	RET
                 
                 	.DSEG
                 _0x2017A:
00026c           	.BYTE 0xB
                 ;////========================================================
                 ;//void robotline() //DIGITAL I/O
                 ;//{
                 ;//    unsigned char status=2;
                 ;//    unsigned char prestatus=2;
                 ;//
                 ;//    DDRA =0x00;
                 ;//    PORTA=0xFF;
                 ;////#define S0  PINA.0 status 0
                 ;////#define S1  PINA.1 status 1
                 ;////#define S2  PINA.2 status 2
                 ;////#define S3  PINA.3 status 3
                 ;////#define S4  PINA.7 status 4
                 ;//        LcdClear();
                 ;//        hc(0,1);
                 ;//        ws ("LINE FOLOWER");
                 ;//        hc(1,20);
                 ;//        ws (" ROBOT");
                 ;//        LEDL=1;LEDR=1;
                 ;//
                 ;//   while(keyKT!=0)
                 ;//   {
                 ;//      if (S2==0)
                 ;//      {
                 ;//          status=2;
                 ;//          vMLtoi(80);vMRtoi(80);
                 ;//      }
                 ;//      //===========================
                 ;//      if ((prestatus==2)&(S1==0))
                 ;//      {
                 ;//          status=1;
                 ;//          vMLtoi(80);vMRtoi(50);
                 ;//      }
                 ;//      if ((prestatus==2)&(S0==0))
                 ;//      {
                 ;//          status=0;
                 ;//          vMLtoi(80);vMRtoi(30);
                 ;//      }
                 ;//       //===========================
                 ;//      if ((prestatus==2)&(S3==0))
                 ;//      {
                 ;//          status=1;
                 ;//          vMLtoi(50);vMRtoi(80);
                 ;//      }
                 ;//      if ((prestatus==2)&(S4==0))
                 ;//      {
                 ;//          status=0;
                 ;//          vMLtoi(30);vMRtoi(80);
                 ;//      }
                 ;//       //===========================
                 ;//      if ((prestatus==1)&(S0==0))
                 ;//      {
                 ;//          status=1;
                 ;//          vMLtoi(80);vMRtoi(40);
                 ;//      }
                 ;//      if ((prestatus==3)&(S4==0))
                 ;//      {
                 ;//          status=0;
                 ;//          vMLtoi(40);vMRtoi(80);
                 ;//      }
                 ;//
                 ;//      prestatus=status;
                 ;//      delay_ms(200);LEDLtoggle();LEDRtoggle();
                 ;//
                 ;//  }
                 ;// }
                 ;
                 ;
                 ;//========================================================
                 ;void readline()
                 ; 0001 07B3 {
                 
                 	.CSEG
                 _readline:
                 ; 0001 07B4     int i=0,j=0;
                 ; 0001 07B5     // reset the values
                 ; 0001 07B6         for(i = 0; i < 5; i++)
000821 940e 1514 	CALL __SAVELOCR4
                 ;	i -> R16,R17
                 ;	j -> R18,R19
                +
000823 e000     +LDI R16 , LOW ( 0 )
000824 e010     +LDI R17 , HIGH ( 0 )
                 	__GETWRN 16,17,0
                +
000825 e020     +LDI R18 , LOW ( 0 )
000826 e030     +LDI R19 , HIGH ( 0 )
                 	__GETWRN 18,19,0
                +
000827 e000     +LDI R16 , LOW ( 0 )
000828 e010     +LDI R17 , HIGH ( 0 )
                 	__GETWRN 16,17,0
                 _0x20187:
                +
000829 3005     +CPI R16 , LOW ( 5 )
00082a e0e0     +LDI R30 , HIGH ( 5 )
00082b 071e     +CPC R17 , R30
                 	__CPWRN 16,17,5
00082c f45c      	BRGE _0x20188
                 ; 0001 07B7         IRLINE[i] = 0;
00082d 940e 1175 	CALL SUBOPT_0x2C
00082f 0fae      	ADD  R26,R30
000830 1fbf      	ADC  R27,R31
000831 e0e0      	LDI  R30,LOW(0)
000832 e0f0      	LDI  R31,HIGH(0)
000833 93ed      	ST   X+,R30
000834 93fc      	ST   X,R31
                +
000835 5f0f     +SUBI R16 , LOW ( - 1 )
000836 4f1f     +SBCI R17 , HIGH ( - 1 )
                 	__ADDWRN 16,17,1
000837 cff1      	RJMP _0x20187
                 _0x20188:
                 ; 0001 07B9 for (j = 0; j < 50; j++)
                +
000838 e020     +LDI R18 , LOW ( 0 )
000839 e030     +LDI R19 , HIGH ( 0 )
                 	__GETWRN 18,19,0
                 _0x2018A:
                +
00083a 3322     +CPI R18 , LOW ( 50 )
00083b e0e0     +LDI R30 , HIGH ( 50 )
00083c 073e     +CPC R19 , R30
                 	__CPWRN 18,19,50
00083d f014      	BRLT PC+3
00083e 940c 0882 	JMP _0x2018B
                 ; 0001 07BA         {
                 ; 0001 07BB             IRLINE[0]= IRLINE[0]+read_adc(0);
000840 e0e0      	LDI  R30,LOW(0)
000841 93ea      	ST   -Y,R30
000842 dc07      	RCALL _read_adc
000843 91a0 051f 	LDS  R26,_IRLINE
000845 91b0 0520 	LDS  R27,_IRLINE+1
000847 0fea      	ADD  R30,R26
000848 1ffb      	ADC  R31,R27
000849 93e0 051f 	STS  _IRLINE,R30
00084b 93f0 0520 	STS  _IRLINE+1,R31
                 ; 0001 07BC             IRLINE[1]= IRLINE[1]+read_adc(1);
00084d e0e1      	LDI  R30,LOW(1)
00084e 93ea      	ST   -Y,R30
00084f dbfa      	RCALL _read_adc
                +
000850 91a0 0521+LDS R26 , _IRLINE + ( 2 )
000852 91b0 0522+LDS R27 , _IRLINE + ( 2 ) + 1
                 	__GETW2MN _IRLINE,2
000854 0fea      	ADD  R30,R26
000855 1ffb      	ADC  R31,R27
                +
000856 93e0 0521+STS _IRLINE + ( 2 ) , R30
000858 93f0 0522+STS _IRLINE + ( 2 ) + 1 , R31
                 	__PUTW1MN _IRLINE,2
                 ; 0001 07BD             IRLINE[2]= IRLINE[2]+read_adc(2);
00085a e0e2      	LDI  R30,LOW(2)
00085b 93ea      	ST   -Y,R30
00085c dbed      	RCALL _read_adc
00085d 940e 117b 	CALL SUBOPT_0x2D
00085f 0fea      	ADD  R30,R26
000860 1ffb      	ADC  R31,R27
                +
000861 93e0 0523+STS _IRLINE + ( 4 ) , R30
000863 93f0 0524+STS _IRLINE + ( 4 ) + 1 , R31
                 	__PUTW1MN _IRLINE,4
                 ; 0001 07BE             IRLINE[3]= IRLINE[3]+read_adc(3);
000865 e0e3      	LDI  R30,LOW(3)
000866 93ea      	ST   -Y,R30
000867 dbe2      	RCALL _read_adc
                +
000868 91a0 0525+LDS R26 , _IRLINE + ( 6 )
00086a 91b0 0526+LDS R27 , _IRLINE + ( 6 ) + 1
                 	__GETW2MN _IRLINE,6
00086c 0fea      	ADD  R30,R26
00086d 1ffb      	ADC  R31,R27
                +
00086e 93e0 0525+STS _IRLINE + ( 6 ) , R30
000870 93f0 0526+STS _IRLINE + ( 6 ) + 1 , R31
                 	__PUTW1MN _IRLINE,6
                 ; 0001 07BF             IRLINE[4]= IRLINE[4]+read_adc(7);
000872 e0e7      	LDI  R30,LOW(7)
000873 93ea      	ST   -Y,R30
000874 dbd5      	RCALL _read_adc
                +
000875 91a0 0527+LDS R26 , _IRLINE + ( 8 )
000877 91b0 0528+LDS R27 , _IRLINE + ( 8 ) + 1
                 	__GETW2MN _IRLINE,8
000879 0fea      	ADD  R30,R26
00087a 1ffb      	ADC  R31,R27
                +
00087b 93e0 0527+STS _IRLINE + ( 8 ) , R30
00087d 93f0 0528+STS _IRLINE + ( 8 ) + 1 , R31
                 	__PUTW1MN _IRLINE,8
                 ; 0001 07C0         }
                +
00087f 5f2f     +SUBI R18 , LOW ( - 1 )
000880 4f3f     +SBCI R19 , HIGH ( - 1 )
                 	__ADDWRN 18,19,1
000881 cfb8      	RJMP _0x2018A
                 _0x2018B:
                 ; 0001 07C1         // get the rounded average of the readings for each sensor
                 ; 0001 07C2         for (i = 0; i < 5; i++)
                +
000882 e000     +LDI R16 , LOW ( 0 )
000883 e010     +LDI R17 , HIGH ( 0 )
                 	__GETWRN 16,17,0
                 _0x2018D:
                +
000884 3005     +CPI R16 , LOW ( 5 )
000885 e0e0     +LDI R30 , HIGH ( 5 )
000886 071e     +CPC R17 , R30
                 	__CPWRN 16,17,5
000887 f4ac      	BRGE _0x2018E
                 ; 0001 07C3         IRLINE[i] = (IRLINE[i] + (50 >> 1)) /50;
000888 940e 1175 	CALL SUBOPT_0x2C
00088a 0fea      	ADD  R30,R26
00088b 1ffb      	ADC  R31,R27
00088c 01bf      	MOVW R22,R30
00088d 940e 1175 	CALL SUBOPT_0x2C
00088f 940e 1180 	CALL SUBOPT_0x2E
000891 9679      	ADIW R30,25
000892 01df      	MOVW R26,R30
000893 e3e2      	LDI  R30,LOW(50)
000894 e0f0      	LDI  R31,HIGH(50)
000895 940e 1473 	CALL __DIVW21U
000897 01db      	MOVW R26,R22
000898 93ed      	ST   X+,R30
000899 93fc      	ST   X,R31
                +
00089a 5f0f     +SUBI R16 , LOW ( - 1 )
00089b 4f1f     +SBCI R17 , HIGH ( - 1 )
                 	__ADDWRN 16,17,1
00089c cfe7      	RJMP _0x2018D
                 _0x2018E:
                 ; 0001 07C4 }
                 _0x20C0003:
00089d 940e 151b 	CALL __LOADLOCR4
                 _0x20C0004:
00089f 9624      	ADIW R28,4
0008a0 9508      	RET
                 ;//========================================================
                 ;void robotwhiteline() //ANALOG OK
                 ; 0001 07C7 {
                 _robotwhiteline:
                 ; 0001 07C8     unsigned char i=0,imax;
                 ; 0001 07C9     int imaxlast=0;
                 ; 0001 07CA     unsigned int  admax;
                 ; 0001 07CB     unsigned int  demled=0;
                 ; 0001 07CC     unsigned int flagblindT=0;
                 ; 0001 07CD     unsigned int flagblindP=0;
                 ; 0001 07CE     DDRA =0x00;
0008a1 9726      	SBIW R28,6
0008a2 940e 10eb 	CALL SUBOPT_0x15
0008a4 e0e0      	LDI  R30,LOW(0)
0008a5 83ea      	STD  Y+2,R30
0008a6 83eb      	STD  Y+3,R30
0008a7 83ec      	STD  Y+4,R30
0008a8 83ed      	STD  Y+5,R30
0008a9 940e 1512 	CALL __SAVELOCR6
                 ;	i -> R17
                 ;	imax -> R16
                 ;	imaxlast -> R18,R19
                 ;	admax -> R20,R21
                 ;	demled -> Y+10
                 ;	flagblindT -> Y+8
                 ;	flagblindP -> Y+6
0008ab e010      	LDI  R17,0
                +
0008ac e020     +LDI R18 , LOW ( 0 )
0008ad e030     +LDI R19 , HIGH ( 0 )
                 	__GETWRN 18,19,0
0008ae 940e 1156 	CALL SUBOPT_0x27
                 ; 0001 07CF     PORTA=0x00;
                 ; 0001 07D0 
                 ; 0001 07D1         LcdClear();
                 ; 0001 07D2         hc(0,1);
0008b0 940e 114b 	CALL SUBOPT_0x25
0008b2 dad4      	RCALL _hc
                 ; 0001 07D3         ws ("WHITE LINE");
                +
0008b3 e7e7     +LDI R30 , LOW ( _0x2018F + ( 0 ) )
0008b4 e0f2     +LDI R31 , HIGH ( _0x2018F + ( 0 ) )
                 	__POINTW1MN _0x2018F,0
0008b5 940e 10bf 	CALL SUBOPT_0xE
                 ; 0001 07D4         hc(1,10);
0008b7 940e 114b 	CALL SUBOPT_0x25
0008b9 940e 115c 	CALL SUBOPT_0x28
                 ; 0001 07D5         ws ("FOLOWER");
                +
0008bb e8e2     +LDI R30 , LOW ( _0x2018F + ( 11 ) )
0008bc e0f2     +LDI R31 , HIGH ( _0x2018F + ( 11 ) )
                 	__POINTW1MN _0x2018F,11
0008bd 940e 10bf 	CALL SUBOPT_0xE
                 ; 0001 07D6         LEDL=1;LEDR=1;
0008bf 9aac      	SBI  0x15,4
0008c0 9aad      	SBI  0x15,5
                 ; 0001 07D7         //doc va khoi dong gia tri cho imaxlast
                 ; 0001 07D8          readline();
0008c1 940e 1185 	CALL SUBOPT_0x2F
                 ; 0001 07D9         admax = IRLINE[0];imax=0;
                 ; 0001 07DA         for(i=1;i<5;i++){if(admax<IRLINE[i]){admax=IRLINE[i];imax=i;}}
                 _0x20195:
0008c3 3015      	CPI  R17,5
0008c4 f468      	BRSH _0x20196
0008c5 940e 118e 	CALL SUBOPT_0x30
0008c7 940e 1180 	CALL SUBOPT_0x2E
0008c9 174e      	CP   R20,R30
0008ca 075f      	CPC  R21,R31
0008cb f420      	BRSH _0x20197
0008cc 940e 118e 	CALL SUBOPT_0x30
0008ce 940e 1195 	CALL SUBOPT_0x31
                 _0x20197:
0008d0 5f1f      	SUBI R17,-1
0008d1 cff1      	RJMP _0x20195
                 _0x20196:
                 ; 0001 07DB         imaxlast=imax;
0008d2 2f20      	MOV  R18,R16
0008d3 2733      	CLR  R19
                 ; 0001 07DC    while(keyKT!=0)
                 _0x20198:
0008d4 9b98      	SBIS 0x13,0
0008d5 c0be      	RJMP _0x2019A
                 ; 0001 07DD    {
                 ; 0001 07DE         //doc gia tri cam bien
                 ; 0001 07DF         readline();
0008d6 940e 1185 	CALL SUBOPT_0x2F
                 ; 0001 07E0         admax = IRLINE[0];imax=0;
                 ; 0001 07E1         for(i=1;i<5;i++){if(admax<IRLINE[i]){admax=IRLINE[i];imax=i;}}
                 _0x2019C:
0008d8 3015      	CPI  R17,5
0008d9 f468      	BRSH _0x2019D
0008da 940e 118e 	CALL SUBOPT_0x30
0008dc 940e 1180 	CALL SUBOPT_0x2E
0008de 174e      	CP   R20,R30
0008df 075f      	CPC  R21,R31
0008e0 f420      	BRSH _0x2019E
0008e1 940e 118e 	CALL SUBOPT_0x30
0008e3 940e 1195 	CALL SUBOPT_0x31
                 _0x2019E:
0008e5 5f1f      	SUBI R17,-1
0008e6 cff1      	RJMP _0x2019C
                 _0x2019D:
                 ; 0001 07E2           //imax=2;
                 ; 0001 07E3          if((imax-imaxlast > 1)||(imax-imaxlast <-1))  //tranh truong hop nhay bo trang thai
0008e7 940e 119b 	CALL SUBOPT_0x32
0008e9 1be2      	SUB  R30,R18
0008ea 0bf3      	SBC  R31,R19
0008eb 01df      	MOVW R26,R30
0008ec 9732      	SBIW R30,2
0008ed f42c      	BRGE _0x201A0
0008ee 01fd      	MOVW R30,R26
0008ef 3fef      	CPI  R30,LOW(0xFFFF)
0008f0 efaf      	LDI  R26,HIGH(0xFFFF)
0008f1 07fa      	CPC  R31,R26
0008f2 f40c      	BRGE _0x2019F
                 _0x201A0:
                 ; 0001 07E4         {
                 ; 0001 07E5         }
                 ; 0001 07E6         else
0008f3 c034      	RJMP _0x201A2
                 _0x2019F:
                 ; 0001 07E7         {
                 ; 0001 07E8             switch(imax)
0008f4 940e 119b 	CALL SUBOPT_0x32
                 ; 0001 07E9             {
                 ; 0001 07EA               case 0:
0008f6 9730      	SBIW R30,0
0008f7 f449      	BRNE _0x201A6
                 ; 0001 07EB                   vMLtoi(1); vMRtoi(20) ;
0008f8 940e 119e 	CALL SUBOPT_0x33
0008fa 940e 11a2 	CALL SUBOPT_0x34
                 ; 0001 07EC                   //flagblindT = 0;
                 ; 0001 07ED                   flagblindP = 1;
0008fc e0e1      	LDI  R30,LOW(1)
0008fd e0f0      	LDI  R31,HIGH(1)
0008fe 83ee      	STD  Y+6,R30
0008ff 83ff      	STD  Y+6+1,R31
                 ; 0001 07EE                 break;
000900 c025      	RJMP _0x201A5
                 ; 0001 07EF               case 1:
                 _0x201A6:
000901 30e1      	CPI  R30,LOW(0x1)
000902 e0a0      	LDI  R26,HIGH(0x1)
000903 07fa      	CPC  R31,R26
000904 f429      	BRNE _0x201A7
                 ; 0001 07F0                   vMLtoi(1); vMRtoi(15) ;
000905 940e 119e 	CALL SUBOPT_0x33
000907 940e 11a6 	CALL SUBOPT_0x35
                 ; 0001 07F1                 break;
000909 c01c      	RJMP _0x201A5
                 ; 0001 07F2               case 2:
                 _0x201A7:
00090a 30e2      	CPI  R30,LOW(0x2)
00090b e0a0      	LDI  R26,HIGH(0x2)
00090c 07fa      	CPC  R31,R26
00090d f429      	BRNE _0x201A8
                 ; 0001 07F3                   vMLtoi(15);vMRtoi(15) ;
00090e 940e 11aa 	CALL SUBOPT_0x36
000910 940e 11a6 	CALL SUBOPT_0x35
                 ; 0001 07F4                 break;
000912 c013      	RJMP _0x201A5
                 ; 0001 07F5               case 3:
                 _0x201A8:
000913 30e3      	CPI  R30,LOW(0x3)
000914 e0a0      	LDI  R26,HIGH(0x3)
000915 07fa      	CPC  R31,R26
000916 f429      	BRNE _0x201A9
                 ; 0001 07F6                  vMLtoi(15); vMRtoi(1) ;
000917 940e 11aa 	CALL SUBOPT_0x36
000919 940e 11ae 	CALL SUBOPT_0x37
                 ; 0001 07F7                 break;
00091b c00a      	RJMP _0x201A5
                 ; 0001 07F8               case 4:
                 _0x201A9:
00091c 30e4      	CPI  R30,LOW(0x4)
00091d e0a0      	LDI  R26,HIGH(0x4)
00091e 07fa      	CPC  R31,R26
00091f f431      	BRNE _0x201AB
                 ; 0001 07F9                   vMLtoi(20);vMRtoi(1)  ;
000920 940e 11b2 	CALL SUBOPT_0x38
                 ; 0001 07FA                   flagblindT = 1;
000922 e0e1      	LDI  R30,LOW(1)
000923 e0f0      	LDI  R31,HIGH(1)
000924 87e8      	STD  Y+8,R30
000925 87f9      	STD  Y+8+1,R31
                 ; 0001 07FB                   //flagblindP = 0;
                 ; 0001 07FC                 break;
                 ; 0001 07FD               default:
                 _0x201AB:
                 ; 0001 07FE                  // vMLtoi(5); vMRtoi(5) ;
                 ; 0001 07FF                 break;
                 ; 0001 0800             }
                 _0x201A5:
                 ; 0001 0801              imaxlast=imax;
000926 2f20      	MOV  R18,R16
000927 2733      	CLR  R19
                 ; 0001 0802         }
                 _0x201A2:
                 ; 0001 0803 
                 ; 0001 0804             while(flagblindT ==1 && keyKT!=0) //lac duong ben trai
                 _0x201AC:
000928 85a8      	LDD  R26,Y+8
000929 85b9      	LDD  R27,Y+8+1
00092a 9711      	SBIW R26,1
00092b f419      	BRNE _0x201AF
00092c 940e 11b7 	CALL SUBOPT_0x39
00092e f409      	BRNE _0x201B0
                 _0x201AF:
00092f c01f      	RJMP _0x201AE
                 _0x201B0:
                 ; 0001 0805             {
                 ; 0001 0806                vMLtoi(20);vMRtoi(1)  ;
000930 940e 11b2 	CALL SUBOPT_0x38
                 ; 0001 0807                 readline();
000932 940e 1185 	CALL SUBOPT_0x2F
                 ; 0001 0808                 admax = IRLINE[0];imax=0;
                 ; 0001 0809                 for(i=1;i<5;i++){if(admax<IRLINE[i]){admax=IRLINE[i];imax=i;}}
                 _0x201B2:
000934 3015      	CPI  R17,5
000935 f468      	BRSH _0x201B3
000936 940e 118e 	CALL SUBOPT_0x30
000938 940e 1180 	CALL SUBOPT_0x2E
00093a 174e      	CP   R20,R30
00093b 075f      	CPC  R21,R31
00093c f420      	BRSH _0x201B4
00093d 940e 118e 	CALL SUBOPT_0x30
00093f 940e 1195 	CALL SUBOPT_0x31
                 _0x201B4:
000941 5f1f      	SUBI R17,-1
000942 cff1      	RJMP _0x201B2
                 _0x201B3:
                 ; 0001 080A                 imaxlast=imax;
000943 2f20      	MOV  R18,R16
000944 2733      	CLR  R19
                 ; 0001 080B                if(IRLINE[2]>500)  flagblindT=0;
000945 940e 117b 	CALL SUBOPT_0x2D
000947 3fa5      	CPI  R26,LOW(0x1F5)
000948 e0e1      	LDI  R30,HIGH(0x1F5)
000949 07be      	CPC  R27,R30
00094a f018      	BRLO _0x201B5
00094b e0e0      	LDI  R30,LOW(0)
00094c 87e8      	STD  Y+8,R30
00094d 87e9      	STD  Y+8+1,R30
                 ; 0001 080C 
                 ; 0001 080D 
                 ; 0001 080E             }
                 _0x201B5:
00094e cfd9      	RJMP _0x201AC
                 _0x201AE:
                 ; 0001 080F             while(flagblindP ==1 && keyKT!=0 ) //lac duong ben phai
                 _0x201B6:
00094f 81ae      	LDD  R26,Y+6
000950 81bf      	LDD  R27,Y+6+1
000951 9711      	SBIW R26,1
000952 f419      	BRNE _0x201B9
000953 940e 11b7 	CALL SUBOPT_0x39
000955 f409      	BRNE _0x201BA
                 _0x201B9:
000956 c021      	RJMP _0x201B8
                 _0x201BA:
                 ; 0001 0810             {
                 ; 0001 0811                vMLtoi(1);vMRtoi(20)  ;
000957 940e 119e 	CALL SUBOPT_0x33
000959 940e 11a2 	CALL SUBOPT_0x34
                 ; 0001 0812                 readline();
00095b 940e 1185 	CALL SUBOPT_0x2F
                 ; 0001 0813                 admax = IRLINE[0];imax=0;
                 ; 0001 0814                 for(i=1;i<5;i++){if(admax<IRLINE[i]){admax=IRLINE[i];imax=i;}}
                 _0x201BC:
00095d 3015      	CPI  R17,5
00095e f468      	BRSH _0x201BD
00095f 940e 118e 	CALL SUBOPT_0x30
000961 940e 1180 	CALL SUBOPT_0x2E
000963 174e      	CP   R20,R30
000964 075f      	CPC  R21,R31
000965 f420      	BRSH _0x201BE
000966 940e 118e 	CALL SUBOPT_0x30
000968 940e 1195 	CALL SUBOPT_0x31
                 _0x201BE:
00096a 5f1f      	SUBI R17,-1
00096b cff1      	RJMP _0x201BC
                 _0x201BD:
                 ; 0001 0815                 imaxlast=imax;
00096c 2f20      	MOV  R18,R16
00096d 2733      	CLR  R19
                 ; 0001 0816                if(IRLINE[2]>500)  flagblindP=0;
00096e 940e 117b 	CALL SUBOPT_0x2D
000970 3fa5      	CPI  R26,LOW(0x1F5)
000971 e0e1      	LDI  R30,HIGH(0x1F5)
000972 07be      	CPC  R27,R30
000973 f018      	BRLO _0x201BF
000974 e0e0      	LDI  R30,LOW(0)
000975 83ee      	STD  Y+6,R30
000976 83ef      	STD  Y+6+1,R30
                 ; 0001 0817 
                 ; 0001 0818             }
                 _0x201BF:
000977 cfd7      	RJMP _0x201B6
                 _0x201B8:
                 ; 0001 0819         hc(3,10);wn16s(imax);
000978 940e 11bc 	CALL SUBOPT_0x3A
00097a 940e 119b 	CALL SUBOPT_0x32
00097c 93fa      	ST   -Y,R31
00097d 93ea      	ST   -Y,R30
00097e 940e 112e 	CALL SUBOPT_0x20
                 ; 0001 081A         hc(4,10);wn16s(admax);
000980 940e 11c1 	CALL SUBOPT_0x3B
000982 935a      	ST   -Y,R21
000983 934a      	ST   -Y,R20
000984 daa5      	RCALL _wn16s
                 ; 0001 081B 
                 ; 0001 081C        demled++;
000985 85ea      	LDD  R30,Y+10
000986 85fb      	LDD  R31,Y+10+1
000987 9631      	ADIW R30,1
000988 87ea      	STD  Y+10,R30
000989 87fb      	STD  Y+10+1,R31
                 ; 0001 081D        if(demled>30){demled=0;LEDLtoggle();LEDRtoggle(); }
00098a 85aa      	LDD  R26,Y+10
00098b 85bb      	LDD  R27,Y+10+1
00098c 975f      	SBIW R26,31
00098d f028      	BRLO _0x201C0
00098e e0e0      	LDI  R30,LOW(0)
00098f 87ea      	STD  Y+10,R30
000990 87eb      	STD  Y+10+1,R30
000991 940e 1171 	CALL SUBOPT_0x2B
                 ; 0001 081E    }
                 _0x201C0:
000993 cf40      	RJMP _0x20198
                 _0x2019A:
                 ; 0001 081F }
000994 940e 1519 	CALL __LOADLOCR6
000996 962c      	ADIW R28,12
000997 9508      	RET
                 
                 	.DSEG
                 _0x2018F:
000277           	.BYTE 0x13
                 ;
                 ;////========================================================
                 ;////========================================================
                 ;//void robotblackline() //ANALOG OK
                 ;//{
                 ;//    int i=0,j=0
                 ;//    ,imin=0;
                 ;//    unsigned int admin;
                 ;//    unsigned int demled=0;
                 ;//    unsigned int flagblindT=0;
                 ;//    unsigned int flagblindP=0;
                 ;//    int iminlast=0;
                 ;//    DDRA =0x00;
                 ;//    PORTA=0x00;
                 ;//
                 ;//        LcdClear();
                 ;//        hc(0,1);
                 ;//        ws ("BLACK LINE");
                 ;//        hc(1,10);
                 ;//        ws ("FOLOWER");
                 ;//        LEDL=1;LEDR=1;
                 ;//
                 ;//        //doc lan dau tien  de khoi dong gia tri iminlast;
                 ;//        readline();
                 ;//        admin = IRLINE[0];imin=0;
                 ;//        for(i=1;i<5;i++){if(admin>IRLINE[i]){admin=IRLINE[i];imin=i;}}
                 ;//        iminlast=imin;
                 ;//
                 ;//   while(keyKT!=0)
                 ;//   {
                 ;//       //doc gia tri cam bien
                 ;//        readline();
                 ;//        admin = IRLINE[0];imin=0;
                 ;//        for(i=1;i<5;i++){if(admin>IRLINE[i]){admin=IRLINE[i];imin=i;}}
                 ;//        hc(2,10);wn16s(iminlast);
                 ;//        hc(3,10);wn16s(imin);
                 ;//        hc(4,10);wn16s(admin);
                 ;//
                 ;//        if((imin-iminlast > 1)||(imin-iminlast <-1))  //tranh truong hop nhay bo trang thai
                 ;//        {
                 ;//        }
                 ;//        else
                 ;//        {
                 ;//             switch(imin)
                 ;//            {
                 ;//              case 0:
                 ;//                  vMLtoi(1); vMRtoi(15) ;
                 ;//                  //flagblindT = 0;
                 ;//                  flagblindP = 1;
                 ;//                break;
                 ;//              case 1:
                 ;//                  vMLtoi(2); vMRtoi(8) ;
                 ;//                break;
                 ;//              case 2:
                 ;//                  vMLtoi(10);vMRtoi(10) ;
                 ;//                break;
                 ;//              case 3:
                 ;//                 vMLtoi(8); vMRtoi(2) ;
                 ;//                break;
                 ;//              case 4:
                 ;//                  vMLtoi(15);vMRtoi(1)  ;
                 ;//                  flagblindT = 1;
                 ;//                  //flagblindP = 0;
                 ;//                break;
                 ;//              default:
                 ;//                 // vMLtoi(5); vMRtoi(5) ;
                 ;//                break;
                 ;//            }
                 ;//
                 ;//              iminlast=imin;
                 ;//         }
                 ;//
                 ;//
                 ;//            while(flagblindT == 1 && keyKT!=0) //lac duong ben trai
                 ;//            {
                 ;//               vMLtoi(20);vMRtoi(2)  ;
                 ;//               readline();
                 ;//               admin = IRLINE[0];imin=0;
                 ;//               for(i=1;i<5;i++){if(admin>IRLINE[i]){admin=IRLINE[i];imin=i;}}
                 ;//               iminlast=imin;
                 ;//               if(IRLINE[2]<310)  flagblindT=0;
                 ;//
                 ;//            }
                 ;//            while(flagblindP ==1 && keyKT!=0) //lac duong ben phai
                 ;//            {
                 ;//               vMLtoi(2);vMRtoi(20)  ;
                 ;//               readline();
                 ;//               admin = IRLINE[0];imin=0;
                 ;//               for(i=1;i<5;i++){if(admin>IRLINE[i]){admin=IRLINE[i];imin=i;}}
                 ;//               iminlast=imin;
                 ;//               if(IRLINE[2]<310)  flagblindP=0;
                 ;//
                 ;//            }
                 ;//
                 ;//
                 ;//       demled++;
                 ;//       if(demled>30){demled=0;LEDLtoggle();LEDRtoggle(); }
                 ;//   }
                 ;//}
                 ;
                 ;//========================================================
                 ;//========================================================
                 ;void robotblackline() //ANALOG OK
                 ; 0001 0887 {
                 
                 	.CSEG
                 _robotblackline:
                 ; 0001 0888     long int lastvalueline=0, valueline=0,value=0,online=0;
                 ; 0001 0889     int i=0,j=0
                 ; 0001 088A     ,imin=0;
                 ; 0001 088B     long avrg=0,sum=0 ;
                 ; 0001 088C     unsigned int admin;
                 ; 0001 088D      unsigned char imax;
                 ; 0001 088E     int imaxlast=0;
                 ; 0001 088F     unsigned int  admax;
                 ; 0001 0890     unsigned int demled=0;
                 ; 0001 0891     unsigned int flagblindT=0;
                 ; 0001 0892     unsigned int flagblindP=0;
                 ; 0001 0893     float udk,sumi=0,err,lasterr;
                 ; 0001 0894 
                 ; 0001 0895     int iminlast=0;
                 ; 0001 0896     DDRA =0x00;
000998 97e7      	SBIW R28,55
000999 e387      	LDI  R24,55
00099a e0a0      	LDI  R26,LOW(0)
00099b e0b0      	LDI  R27,HIGH(0)
00099c e4ee      	LDI  R30,LOW(_0x201C1*2)
00099d e0f2      	LDI  R31,HIGH(_0x201C1*2)
00099e 940e 1520 	CALL __INITLOCB
0009a0 940e 1512 	CALL __SAVELOCR6
                 ;	lastvalueline -> Y+57
                 ;	valueline -> Y+53
                 ;	value -> Y+49
                 ;	online -> Y+45
                 ;	i -> R16,R17
                 ;	j -> R18,R19
                 ;	imin -> R20,R21
                 ;	avrg -> Y+41
                 ;	sum -> Y+37
                 ;	admin -> Y+35
                 ;	imax -> Y+34
                 ;	imaxlast -> Y+32
                 ;	admax -> Y+30
                 ;	demled -> Y+28
                 ;	flagblindT -> Y+26
                 ;	flagblindP -> Y+24
                 ;	udk -> Y+20
                 ;	sumi -> Y+16
                 ;	err -> Y+12
                 ;	lasterr -> Y+8
                 ;	iminlast -> Y+6
                +
0009a2 e000     +LDI R16 , LOW ( 0 )
0009a3 e010     +LDI R17 , HIGH ( 0 )
                 	__GETWRN 16,17,0
                +
0009a4 e020     +LDI R18 , LOW ( 0 )
0009a5 e030     +LDI R19 , HIGH ( 0 )
                 	__GETWRN 18,19,0
                +
0009a6 e040     +LDI R20 , LOW ( 0 )
0009a7 e050     +LDI R21 , HIGH ( 0 )
                 	__GETWRN 20,21,0
0009a8 940e 1156 	CALL SUBOPT_0x27
                 ; 0001 0897     PORTA=0x00;
                 ; 0001 0898 
                 ; 0001 0899         LcdClear();
                 ; 0001 089A         hc(0,1);
0009aa 940e 114b 	CALL SUBOPT_0x25
0009ac d9da      	RCALL _hc
                 ; 0001 089B         ws ("BLACK LINE");
                +
0009ad e8ea     +LDI R30 , LOW ( _0x201C2 + ( 0 ) )
0009ae e0f2     +LDI R31 , HIGH ( _0x201C2 + ( 0 ) )
                 	__POINTW1MN _0x201C2,0
0009af 940e 10bf 	CALL SUBOPT_0xE
                 ; 0001 089C         hc(1,10);
0009b1 940e 114b 	CALL SUBOPT_0x25
0009b3 940e 115c 	CALL SUBOPT_0x28
                 ; 0001 089D         ws ("FOLOWER");
                +
0009b5 e9e5     +LDI R30 , LOW ( _0x201C2 + ( 11 ) )
0009b6 e0f2     +LDI R31 , HIGH ( _0x201C2 + ( 11 ) )
                 	__POINTW1MN _0x201C2,11
0009b7 940e 10bf 	CALL SUBOPT_0xE
                 ; 0001 089E         LEDL=1;LEDR=1;
0009b9 9aac      	SBI  0x15,4
0009ba 9aad      	SBI  0x15,5
                 ; 0001 089F 
                 ; 0001 08A0         //doc lan dau tien  de khoi dong gia tri iminlast;
                 ; 0001 08A1         readline();
0009bb 940e 11c4 	CALL SUBOPT_0x3C
                 ; 0001 08A2         admin = IRLINE[0];imin=0;
                 ; 0001 08A3         for(i=1;i<5;i++){if(admin>IRLINE[i]){admin=IRLINE[i];imin=i;}}
                 _0x201C8:
                +
0009bd 3005     +CPI R16 , LOW ( 5 )
0009be e0e0     +LDI R30 , HIGH ( 5 )
0009bf 071e     +CPC R17 , R30
                 	__CPWRN 16,17,5
0009c0 f48c      	BRGE _0x201C9
0009c1 940e 1175 	CALL SUBOPT_0x2C
0009c3 940e 1180 	CALL SUBOPT_0x2E
0009c5 940e 11d1 	CALL SUBOPT_0x3D
0009c7 f438      	BRSH _0x201CA
0009c8 940e 1175 	CALL SUBOPT_0x2C
0009ca 940e 1180 	CALL SUBOPT_0x2E
0009cc a3eb      	STD  Y+35,R30
0009cd a3fc      	STD  Y+35+1,R31
0009ce 01a8      	MOVW R20,R16
                 _0x201CA:
                +
0009cf 5f0f     +SUBI R16 , LOW ( - 1 )
0009d0 4f1f     +SBCI R17 , HIGH ( - 1 )
                 	__ADDWRN 16,17,1
0009d1 cfeb      	RJMP _0x201C8
                 _0x201C9:
                 ; 0001 08A4         iminlast=imin;
                +
0009d2 834e     +STD Y + 6 , R20
0009d3 835f     +STD Y + 6 + 1 , R21
                 	__PUTWSR 20,21,6
                 ; 0001 08A5         admin = 1024;
0009d4 e0e0      	LDI  R30,LOW(1024)
0009d5 e0f4      	LDI  R31,HIGH(1024)
0009d6 a3eb      	STD  Y+35,R30
0009d7 a3fc      	STD  Y+35+1,R31
                 ; 0001 08A6         admax = 0;
0009d8 8fee      	STD  Y+30,R30
0009d9 8fef      	STD  Y+30+1,R30
                 ; 0001 08A7    //calib
                 ; 0001 08A8    while(keyKT!=0)
                 _0x201CB:
0009da 9b98      	SBIS 0x13,0
0009db c03f      	RJMP _0x201CD
                 ; 0001 08A9    {
                 ; 0001 08AA       //doc gia tri cam bien
                 ; 0001 08AB       readline();
0009dc de44      	RCALL _readline
                 ; 0001 08AC 
                 ; 0001 08AD       for(i=1;i<5;i++){if(admin>IRLINE[i]){admin=IRLINE[i];imin=i;}}
                +
0009dd e001     +LDI R16 , LOW ( 1 )
0009de e010     +LDI R17 , HIGH ( 1 )
                 	__GETWRN 16,17,1
                 _0x201CF:
                +
0009df 3005     +CPI R16 , LOW ( 5 )
0009e0 e0e0     +LDI R30 , HIGH ( 5 )
0009e1 071e     +CPC R17 , R30
                 	__CPWRN 16,17,5
0009e2 f48c      	BRGE _0x201D0
0009e3 940e 1175 	CALL SUBOPT_0x2C
0009e5 940e 1180 	CALL SUBOPT_0x2E
0009e7 940e 11d1 	CALL SUBOPT_0x3D
0009e9 f438      	BRSH _0x201D1
0009ea 940e 1175 	CALL SUBOPT_0x2C
0009ec 940e 1180 	CALL SUBOPT_0x2E
0009ee a3eb      	STD  Y+35,R30
0009ef a3fc      	STD  Y+35+1,R31
0009f0 01a8      	MOVW R20,R16
                 _0x201D1:
                +
0009f1 5f0f     +SUBI R16 , LOW ( - 1 )
0009f2 4f1f     +SBCI R17 , HIGH ( - 1 )
                 	__ADDWRN 16,17,1
0009f3 cfeb      	RJMP _0x201CF
                 _0x201D0:
                 ; 0001 08AE       //hc(3,10);wn16s(admin);
                 ; 0001 08AF       hc(3,10);wn16s(admin);
0009f4 940e 11bc 	CALL SUBOPT_0x3A
0009f6 940e 11d6 	CALL SUBOPT_0x3E
                 ; 0001 08B0 
                 ; 0001 08B1       for(i=1;i<5;i++){if(admax<IRLINE[i]){admax=IRLINE[i];imax=i;}}
                +
0009f8 e001     +LDI R16 , LOW ( 1 )
0009f9 e010     +LDI R17 , HIGH ( 1 )
                 	__GETWRN 16,17,1
                 _0x201D3:
                +
0009fa 3005     +CPI R16 , LOW ( 5 )
0009fb e0e0     +LDI R30 , HIGH ( 5 )
0009fc 071e     +CPC R17 , R30
                 	__CPWRN 16,17,5
0009fd f49c      	BRGE _0x201D4
0009fe 940e 1175 	CALL SUBOPT_0x2C
000a00 940e 1180 	CALL SUBOPT_0x2E
000a02 8dae      	LDD  R26,Y+30
000a03 8dbf      	LDD  R27,Y+30+1
000a04 17ae      	CP   R26,R30
000a05 07bf      	CPC  R27,R31
000a06 f438      	BRSH _0x201D5
000a07 940e 1175 	CALL SUBOPT_0x2C
000a09 940e 1180 	CALL SUBOPT_0x2E
000a0b 8fee      	STD  Y+30,R30
000a0c 8fff      	STD  Y+30+1,R31
                +
000a0d a30a     +STD Y + 34 , R16
                 	__PUTBSR 16,34
                 _0x201D5:
                +
000a0e 5f0f     +SUBI R16 , LOW ( - 1 )
000a0f 4f1f     +SBCI R17 , HIGH ( - 1 )
                 	__ADDWRN 16,17,1
000a10 cfe9      	RJMP _0x201D3
                 _0x201D4:
                 ; 0001 08B2       hc(4,10);wn16s(admax);
000a11 e0e4      	LDI  R30,LOW(4)
000a12 e0f0      	LDI  R31,HIGH(4)
000a13 940e 11c1 	CALL SUBOPT_0x3B
000a15 8dee      	LDD  R30,Y+30
000a16 8dff      	LDD  R31,Y+30+1
000a17 93fa      	ST   -Y,R31
000a18 93ea      	ST   -Y,R30
000a19 da10      	RCALL _wn16s
                 ; 0001 08B3    }
000a1a cfbf      	RJMP _0x201CB
                 _0x201CD:
                 ; 0001 08B4    //test gia tri doc line
                 ; 0001 08B5    online=0;
000a1b e0e0      	LDI  R30,LOW(0)
                +
000a1c a7ed     +STD Y + 45 , R30
000a1d a7ee     +STD Y + 45 + 1 , R30
000a1e a7ef     +STD Y + 45 + 2 , R30
000a1f abe8     +STD Y + 45 + 3 , R30
                 	__CLRD1S 45
                 ; 0001 08B6    while(1)
                 _0x201D6:
                 ; 0001 08B7    {
                 ; 0001 08B8       //doc gia tri cam bien
                 ; 0001 08B9       readline();
000a20 de00      	RCALL _readline
                 ; 0001 08BA       for(i=0;i<5;i++)
                +
000a21 e000     +LDI R16 , LOW ( 0 )
000a22 e010     +LDI R17 , HIGH ( 0 )
                 	__GETWRN 16,17,0
                 _0x201DA:
                +
000a23 3005     +CPI R16 , LOW ( 5 )
000a24 e0e0     +LDI R30 , HIGH ( 5 )
000a25 071e     +CPC R17 , R30
                 	__CPWRN 16,17,5
000a26 f014      	BRLT PC+3
000a27 940c 0a70 	JMP _0x201DB
                 ; 0001 08BB       {
                 ; 0001 08BC          value=IRLINE[i];
000a29 940e 1175 	CALL SUBOPT_0x2C
000a2b 940e 1180 	CALL SUBOPT_0x2E
000a2d 2766      	CLR  R22
000a2e 2777      	CLR  R23
                +
000a2f abe9     +STD Y + 49 , R30
000a30 abfa     +STD Y + 49 + 1 , R31
000a31 ab6b     +STD Y + 49 + 2 , R22
000a32 ab7c     +STD Y + 49 + 3 , R23
                 	__PUTD1S 49
                 ; 0001 08BD          if(value<280) online=1;
                +
000a33 a9a9     +LDD R26 , Y + 49
000a34 a9ba     +LDD R27 , Y + 49 + 1
000a35 a98b     +LDD R24 , Y + 49 + 2
000a36 a99c     +LDD R25 , Y + 49 + 3
                 	__GETD2S 49
                +
000a37 31a8     +CPI R26 , LOW ( 0x118 )
000a38 e0e1     +LDI R30 , HIGH ( 0x118 )
000a39 07be     +CPC R27 , R30
000a3a e0e0     +LDI R30 , BYTE3 ( 0x118 )
000a3b 078e     +CPC R24 , R30
000a3c e0e0     +LDI R30 , BYTE4 ( 0x118 )
000a3d 079e     +CPC R25 , R30
                 	__CPD2N 0x118
000a3e f444      	BRGE _0x201DC
                +
000a3f e0e1     +LDI R30 , LOW ( 0x1 )
000a40 e0f0     +LDI R31 , HIGH ( 0x1 )
000a41 e060     +LDI R22 , BYTE3 ( 0x1 )
000a42 e070     +LDI R23 , BYTE4 ( 0x1 )
                 	__GETD1N 0x1
                +
000a43 a7ed     +STD Y + 45 , R30
000a44 a7fe     +STD Y + 45 + 1 , R31
000a45 a76f     +STD Y + 45 + 2 , R22
000a46 ab78     +STD Y + 45 + 3 , R23
                 	__PUTD1S 45
                 ; 0001 08BE          avrg = avrg+i*1000*value;
                 _0x201DC:
000a47 01f8      	MOVW R30,R16
000a48 eea8      	LDI  R26,LOW(1000)
000a49 e0b3      	LDI  R27,HIGH(1000)
000a4a 940e 1469 	CALL __MULW12
000a4c 01df      	MOVW R26,R30
                +
000a4d a9e9     +LDD R30 , Y + 49
000a4e a9fa     +LDD R31 , Y + 49 + 1
000a4f a96b     +LDD R22 , Y + 49 + 2
000a50 a97c     +LDD R23 , Y + 49 + 3
                 	__GETD1S 49
000a51 940e 1436 	CALL __CWD2
000a53 940e 146e 	CALL __MULD12
                +
000a55 a5a9     +LDD R26 , Y + 41
000a56 a5ba     +LDD R27 , Y + 41 + 1
000a57 a58b     +LDD R24 , Y + 41 + 2
000a58 a59c     +LDD R25 , Y + 41 + 3
                 	__GETD2S 41
000a59 940e 141b 	CALL __ADDD12
                +
000a5b a7e9     +STD Y + 41 , R30
000a5c a7fa     +STD Y + 41 + 1 , R31
000a5d a76b     +STD Y + 41 + 2 , R22
000a5e a77c     +STD Y + 41 + 3 , R23
                 	__PUTD1S 41
                 ; 0001 08BF          sum = sum+value;
                +
000a5f a9e9     +LDD R30 , Y + 49
000a60 a9fa     +LDD R31 , Y + 49 + 1
000a61 a96b     +LDD R22 , Y + 49 + 2
000a62 a97c     +LDD R23 , Y + 49 + 3
                 	__GETD1S 49
                +
000a63 a1ad     +LDD R26 , Y + 37
000a64 a1be     +LDD R27 , Y + 37 + 1
000a65 a18f     +LDD R24 , Y + 37 + 2
000a66 a598     +LDD R25 , Y + 37 + 3
                 	__GETD2S 37
000a67 940e 141b 	CALL __ADDD12
                +
000a69 a3ed     +STD Y + 37 , R30
000a6a a3fe     +STD Y + 37 + 1 , R31
000a6b a36f     +STD Y + 37 + 2 , R22
000a6c a778     +STD Y + 37 + 3 , R23
                 	__PUTD1S 37
                 ; 0001 08C0       }
                +
000a6d 5f0f     +SUBI R16 , LOW ( - 1 )
000a6e 4f1f     +SBCI R17 , HIGH ( - 1 )
                 	__ADDWRN 16,17,1
000a6f cfb3      	RJMP _0x201DA
                 _0x201DB:
                 ; 0001 08C1       //hc(1,10);wn16s(online);
                 ; 0001 08C2       if(online==1)
                +
000a70 a5ad     +LDD R26 , Y + 45
000a71 a5be     +LDD R27 , Y + 45 + 1
000a72 a58f     +LDD R24 , Y + 45 + 2
000a73 a998     +LDD R25 , Y + 45 + 3
                 	__GETD2S 45
                +
000a74 30a1     +CPI R26 , LOW ( 0x1 )
000a75 e0e0     +LDI R30 , HIGH ( 0x1 )
000a76 07be     +CPC R27 , R30
000a77 e0e0     +LDI R30 , BYTE3 ( 0x1 )
000a78 078e     +CPC R24 , R30
000a79 e0e0     +LDI R30 , BYTE4 ( 0x1 )
000a7a 079e     +CPC R25 , R30
                 	__CPD2N 0x1
000a7b f501      	BRNE _0x201DD
                 ; 0001 08C3       {
                 ; 0001 08C4          valueline=(int)(avrg/ sum);
                +
000a7c a1ed     +LDD R30 , Y + 37
000a7d a1fe     +LDD R31 , Y + 37 + 1
000a7e a16f     +LDD R22 , Y + 37 + 2
000a7f a578     +LDD R23 , Y + 37 + 3
                 	__GETD1S 37
                +
000a80 a5a9     +LDD R26 , Y + 41
000a81 a5ba     +LDD R27 , Y + 41 + 1
000a82 a58b     +LDD R24 , Y + 41 + 2
000a83 a59c     +LDD R25 , Y + 41 + 3
                 	__GETD2S 41
000a84 940e 14b0 	CALL __DIVD21
000a86 2766      	CLR  R22
000a87 2777      	CLR  R23
000a88 940e 1431 	CALL __CWD1
                +
000a8a abed     +STD Y + 53 , R30
000a8b abfe     +STD Y + 53 + 1 , R31
000a8c ab6f     +STD Y + 53 + 2 , R22
000a8d af78     +STD Y + 53 + 3 , R23
                 	__PUTD1S 53
                 ; 0001 08C5         // hc(2,10);wn16s(valueline);
                 ; 0001 08C6          online=0;
000a8e e0e0      	LDI  R30,LOW(0)
                +
000a8f a7ed     +STD Y + 45 , R30
000a90 a7ee     +STD Y + 45 + 1 , R30
000a91 a7ef     +STD Y + 45 + 2 , R30
000a92 abe8     +STD Y + 45 + 3 , R30
                 	__CLRD1S 45
                 ; 0001 08C7          avrg=0;
                +
000a93 a7e9     +STD Y + 41 , R30
000a94 a7ea     +STD Y + 41 + 1 , R30
000a95 a7eb     +STD Y + 41 + 2 , R30
000a96 a7ec     +STD Y + 41 + 3 , R30
                 	__CLRD1S 41
                 ; 0001 08C8          sum=0;
                +
000a97 a3ed     +STD Y + 37 , R30
000a98 a3ee     +STD Y + 37 + 1 , R30
000a99 a3ef     +STD Y + 37 + 2 , R30
000a9a a7e8     +STD Y + 37 + 3 , R30
                 	__CLRD1S 37
                 ; 0001 08C9       }else
000a9b c019      	RJMP _0x201DE
                 _0x201DD:
                 ; 0001 08CA       {
                 ; 0001 08CB          if(lastvalueline>1935)
                +
000a9c ada9     +LDD R26 , Y + 57
000a9d adba     +LDD R27 , Y + 57 + 1
000a9e ad8b     +LDD R24 , Y + 57 + 2
000a9f ad9c     +LDD R25 , Y + 57 + 3
                 	__GETD2S 57
                +
000aa0 39a0     +CPI R26 , LOW ( 0x790 )
000aa1 e0e7     +LDI R30 , HIGH ( 0x790 )
000aa2 07be     +CPC R27 , R30
000aa3 e0e0     +LDI R30 , BYTE3 ( 0x790 )
000aa4 078e     +CPC R24 , R30
000aa5 e0e0     +LDI R30 , BYTE4 ( 0x790 )
000aa6 079e     +CPC R25 , R30
                 	__CPD2N 0x790
000aa7 f02c      	BRLT _0x201DF
                 ; 0001 08CC          valueline=2000;
                +
000aa8 ede0     +LDI R30 , LOW ( 0x7D0 )
000aa9 e0f7     +LDI R31 , HIGH ( 0x7D0 )
000aaa e060     +LDI R22 , BYTE3 ( 0x7D0 )
000aab e070     +LDI R23 , BYTE4 ( 0x7D0 )
                 	__GETD1N 0x7D0
000aac c004      	RJMP _0x202EC
                 ; 0001 08CD          else
                 _0x201DF:
                 ; 0001 08CE          valueline=1800;
                +
000aad e0e8     +LDI R30 , LOW ( 0x708 )
000aae e0f7     +LDI R31 , HIGH ( 0x708 )
000aaf e060     +LDI R22 , BYTE3 ( 0x708 )
000ab0 e070     +LDI R23 , BYTE4 ( 0x708 )
                 	__GETD1N 0x708
                 _0x202EC:
                +
000ab1 abed     +STD Y + 53 , R30
000ab2 abfe     +STD Y + 53 + 1 , R31
000ab3 ab6f     +STD Y + 53 + 2 , R22
000ab4 af78     +STD Y + 53 + 3 , R23
                 	__PUTD1S 53
                 ; 0001 08CF       }
                 _0x201DE:
                 ; 0001 08D0       err = 1935-valueline;
                +
000ab5 a9ad     +LDD R26 , Y + 53
000ab6 a9be     +LDD R27 , Y + 53 + 1
000ab7 a98f     +LDD R24 , Y + 53 + 2
000ab8 ad98     +LDD R25 , Y + 53 + 3
                 	__GETD2S 53
                +
000ab9 e8ef     +LDI R30 , LOW ( 0x78F )
000aba e0f7     +LDI R31 , HIGH ( 0x78F )
000abb e060     +LDI R22 , BYTE3 ( 0x78F )
000abc e070     +LDI R23 , BYTE4 ( 0x78F )
                 	__GETD1N 0x78F
000abd 940e 1420 	CALL __SUBD12
000abf 940e 12de 	CALL __CDF1
000ac1 940e 11dc 	CALL SUBOPT_0x3F
                 ; 0001 08D1       if(err>100) err=100;
000ac3 940e 11e1 	CALL SUBOPT_0x40
                +
000ac5 e0e0     +LDI R30 , LOW ( 0x42C80000 )
000ac6 e0f0     +LDI R31 , HIGH ( 0x42C80000 )
000ac7 ec68     +LDI R22 , BYTE3 ( 0x42C80000 )
000ac8 e472     +LDI R23 , BYTE4 ( 0x42C80000 )
                 	__GETD1N 0x42C80000
000ac9 940e 13fb 	CALL __CMPF12
000acb f009      	BREQ PC+2
000acc f410      	BRCC PC+3
000acd 940c 0ad1 	JMP  _0x201E1
000acf 940e 11dc 	CALL SUBOPT_0x3F
                 ; 0001 08D2       if(err<-100) err=-100;
                 _0x201E1:
000ad1 940e 11e1 	CALL SUBOPT_0x40
                +
000ad3 e0e0     +LDI R30 , LOW ( 0xC2C80000 )
000ad4 e0f0     +LDI R31 , HIGH ( 0xC2C80000 )
000ad5 ec68     +LDI R22 , BYTE3 ( 0xC2C80000 )
000ad6 ec72     +LDI R23 , BYTE4 ( 0xC2C80000 )
                 	__GETD1N 0xC2C80000
000ad7 940e 13fb 	CALL __CMPF12
000ad9 f410      	BRSH _0x201E2
000ada 940e 11dc 	CALL SUBOPT_0x3F
                 ; 0001 08D3       sumi=sumi+ err/35;
                 _0x201E2:
000adc 940e 11e1 	CALL SUBOPT_0x40
                +
000ade e0e0     +LDI R30 , LOW ( 0x420C0000 )
000adf e0f0     +LDI R31 , HIGH ( 0x420C0000 )
000ae0 e06c     +LDI R22 , BYTE3 ( 0x420C0000 )
000ae1 e472     +LDI R23 , BYTE4 ( 0x420C0000 )
                 	__GETD1N 0x420C0000
000ae2 940e 11e6 	CALL SUBOPT_0x41
000ae4 940e 11ef 	CALL SUBOPT_0x42
                 ; 0001 08D4       if(sumi>6) sumi=6;
                +
000ae6 89a8     +LDD R26 , Y + 16
000ae7 89b9     +LDD R27 , Y + 16 + 1
000ae8 898a     +LDD R24 , Y + 16 + 2
000ae9 899b     +LDD R25 , Y + 16 + 3
                 	__GETD2S 16
                +
000aea e0e0     +LDI R30 , LOW ( 0x40C00000 )
000aeb e0f0     +LDI R31 , HIGH ( 0x40C00000 )
000aec ec60     +LDI R22 , BYTE3 ( 0x40C00000 )
000aed e470     +LDI R23 , BYTE4 ( 0x40C00000 )
                 	__GETD1N 0x40C00000
000aee 940e 13fb 	CALL __CMPF12
000af0 f009      	BREQ PC+2
000af1 f410      	BRCC PC+3
000af2 940c 0af6 	JMP  _0x201E3
000af4 940e 11ef 	CALL SUBOPT_0x42
                 ; 0001 08D5       if(sumi<-6) sumi=-6;
                 _0x201E3:
                +
000af6 89a8     +LDD R26 , Y + 16
000af7 89b9     +LDD R27 , Y + 16 + 1
000af8 898a     +LDD R24 , Y + 16 + 2
000af9 899b     +LDD R25 , Y + 16 + 3
                 	__GETD2S 16
                +
000afa e0e0     +LDI R30 , LOW ( 0xC0C00000 )
000afb e0f0     +LDI R31 , HIGH ( 0xC0C00000 )
000afc ec60     +LDI R22 , BYTE3 ( 0xC0C00000 )
000afd ec70     +LDI R23 , BYTE4 ( 0xC0C00000 )
                 	__GETD1N 0xC0C00000
000afe 940e 13fb 	CALL __CMPF12
000b00 f410      	BRSH _0x201E4
000b01 940e 11ef 	CALL SUBOPT_0x42
                 ; 0001 08D6       udk = err/7 + sumi+(err-lasterr)/30;
                 _0x201E4:
000b03 940e 11e1 	CALL SUBOPT_0x40
                +
000b05 e0e0     +LDI R30 , LOW ( 0x40E00000 )
000b06 e0f0     +LDI R31 , HIGH ( 0x40E00000 )
000b07 ee60     +LDI R22 , BYTE3 ( 0x40E00000 )
000b08 e470     +LDI R23 , BYTE4 ( 0x40E00000 )
                 	__GETD1N 0x40E00000
000b09 940e 11e6 	CALL SUBOPT_0x41
000b0b 937f      	PUSH R23
000b0c 936f      	PUSH R22
000b0d 93ff      	PUSH R31
000b0e 93ef      	PUSH R30
000b0f 940e 11f4 	CALL SUBOPT_0x43
                +
000b11 85ec     +LDD R30 , Y + 12
000b12 85fd     +LDD R31 , Y + 12 + 1
000b13 856e     +LDD R22 , Y + 12 + 2
000b14 857f     +LDD R23 , Y + 12 + 3
                 	__GETD1S 12
000b15 940e 1311 	CALL __SUBF12
000b17 01df      	MOVW R26,R30
000b18 01cb      	MOVW R24,R22
                +
000b19 e0e0     +LDI R30 , LOW ( 0x41F00000 )
000b1a e0f0     +LDI R31 , HIGH ( 0x41F00000 )
000b1b ef60     +LDI R22 , BYTE3 ( 0x41F00000 )
000b1c e471     +LDI R23 , BYTE4 ( 0x41F00000 )
                 	__GETD1N 0x41F00000
000b1d 940e 13b6 	CALL __DIVF21
000b1f 91af      	POP  R26
000b20 91bf      	POP  R27
000b21 918f      	POP  R24
000b22 919f      	POP  R25
000b23 940e 1318 	CALL __ADDF12
000b25 940e 11f9 	CALL SUBOPT_0x44
                 ; 0001 08D7       if(udk>10) {udk=9;sumi=0;}
000b27 940e 11fe 	CALL SUBOPT_0x45
000b29 940e 1121 	CALL SUBOPT_0x1E
000b2b 940e 13fb 	CALL __CMPF12
000b2d f009      	BREQ PC+2
000b2e f410      	BRCC PC+3
000b2f 940c 0b37 	JMP  _0x201E5
                +
000b31 e0e0     +LDI R30 , LOW ( 0x41100000 )
000b32 e0f0     +LDI R31 , HIGH ( 0x41100000 )
000b33 e160     +LDI R22 , BYTE3 ( 0x41100000 )
000b34 e471     +LDI R23 , BYTE4 ( 0x41100000 )
                 	__GETD1N 0x41100000
000b35 940e 1203 	CALL SUBOPT_0x46
                 ; 0001 08D8       if(udk<-10){ udk=-9;sumi=0;}
                 _0x201E5:
000b37 940e 11fe 	CALL SUBOPT_0x45
                +
000b39 e0e0     +LDI R30 , LOW ( 0xC1200000 )
000b3a e0f0     +LDI R31 , HIGH ( 0xC1200000 )
000b3b e260     +LDI R22 , BYTE3 ( 0xC1200000 )
000b3c ec71     +LDI R23 , BYTE4 ( 0xC1200000 )
                 	__GETD1N 0xC1200000
000b3d 940e 13fb 	CALL __CMPF12
000b3f f430      	BRSH _0x201E6
                +
000b40 e0e0     +LDI R30 , LOW ( 0xC1100000 )
000b41 e0f0     +LDI R31 , HIGH ( 0xC1100000 )
000b42 e160     +LDI R22 , BYTE3 ( 0xC1100000 )
000b43 ec71     +LDI R23 , BYTE4 ( 0xC1100000 )
                 	__GETD1N 0xC1100000
000b44 940e 1203 	CALL SUBOPT_0x46
                 ; 0001 08D9       //hc(5,10);wn16s(udk);
                 ; 0001 08DA       vMLtoi(10+udk); vMRtoi(10-udk) ;
                 _0x201E6:
                +
000b46 89ec     +LDD R30 , Y + 20
000b47 89fd     +LDD R31 , Y + 20 + 1
000b48 896e     +LDD R22 , Y + 20 + 2
000b49 897f     +LDD R23 , Y + 20 + 3
                 	__GETD1S 20
                +
000b4a e0a0     +LDI R26 , LOW ( 0x41200000 )
000b4b e0b0     +LDI R27 , HIGH ( 0x41200000 )
000b4c e280     +LDI R24 , BYTE3 ( 0x41200000 )
000b4d e491     +LDI R25 , BYTE4 ( 0x41200000 )
                 	__GETD2N 0x41200000
000b4e 940e 1318 	CALL __ADDF12
000b50 940e 12a5 	CALL __CFD1U
000b52 93ea      	ST   -Y,R30
000b53 d9bc      	RCALL _vMLtoi
000b54 940e 11fe 	CALL SUBOPT_0x45
000b56 940e 1121 	CALL SUBOPT_0x1E
000b58 940e 1311 	CALL __SUBF12
000b5a 940e 12a5 	CALL __CFD1U
000b5c 93ea      	ST   -Y,R30
000b5d d9ca      	RCALL _vMRtoi
                 ; 0001 08DB 
                 ; 0001 08DC       lastvalueline=valueline;
                +
000b5e a9ed     +LDD R30 , Y + 53
000b5f a9fe     +LDD R31 , Y + 53 + 1
000b60 a96f     +LDD R22 , Y + 53 + 2
000b61 ad78     +LDD R23 , Y + 53 + 3
                 	__GETD1S 53
                +
000b62 afe9     +STD Y + 57 , R30
000b63 affa     +STD Y + 57 + 1 , R31
000b64 af6b     +STD Y + 57 + 2 , R22
000b65 af7c     +STD Y + 57 + 3 , R23
                 	__PUTD1S 57
                 ; 0001 08DD       lasterr=err;
                +
000b66 85ec     +LDD R30 , Y + 12
000b67 85fd     +LDD R31 , Y + 12 + 1
000b68 856e     +LDD R22 , Y + 12 + 2
000b69 857f     +LDD R23 , Y + 12 + 3
                 	__GETD1S 12
                +
000b6a 87e8     +STD Y + 8 , R30
000b6b 87f9     +STD Y + 8 + 1 , R31
000b6c 876a     +STD Y + 8 + 2 , R22
000b6d 877b     +STD Y + 8 + 3 , R23
                 	__PUTD1S 8
                 ; 0001 08DE    }
000b6e ceb1      	RJMP _0x201D6
                 ; 0001 08DF 
                 ; 0001 08E0    while(keyKT!=0)
                 _0x201E7:
000b6f 9b98      	SBIS 0x13,0
000b70 c0de      	RJMP _0x201E9
                 ; 0001 08E1    {
                 ; 0001 08E2        //doc gia tri cam bien
                 ; 0001 08E3         readline();
000b71 940e 11c4 	CALL SUBOPT_0x3C
                 ; 0001 08E4         admin = IRLINE[0];imin=0;
                 ; 0001 08E5         for(i=1;i<5;i++){if(admin>IRLINE[i]){admin=IRLINE[i];imin=i;}}
                 _0x201EB:
                +
000b73 3005     +CPI R16 , LOW ( 5 )
000b74 e0e0     +LDI R30 , HIGH ( 5 )
000b75 071e     +CPC R17 , R30
                 	__CPWRN 16,17,5
000b76 f48c      	BRGE _0x201EC
000b77 940e 1175 	CALL SUBOPT_0x2C
000b79 940e 1180 	CALL SUBOPT_0x2E
000b7b 940e 11d1 	CALL SUBOPT_0x3D
000b7d f438      	BRSH _0x201ED
000b7e 940e 1175 	CALL SUBOPT_0x2C
000b80 940e 1180 	CALL SUBOPT_0x2E
000b82 a3eb      	STD  Y+35,R30
000b83 a3fc      	STD  Y+35+1,R31
000b84 01a8      	MOVW R20,R16
                 _0x201ED:
                +
000b85 5f0f     +SUBI R16 , LOW ( - 1 )
000b86 4f1f     +SBCI R17 , HIGH ( - 1 )
                 	__ADDWRN 16,17,1
000b87 cfeb      	RJMP _0x201EB
                 _0x201EC:
                 ; 0001 08E6         hc(2,10);wn16s(iminlast);
000b88 940e 1146 	CALL SUBOPT_0x24
000b8a 940e 115c 	CALL SUBOPT_0x28
000b8c 81ee      	LDD  R30,Y+6
000b8d 81ff      	LDD  R31,Y+6+1
000b8e 93fa      	ST   -Y,R31
000b8f 93ea      	ST   -Y,R30
000b90 940e 1133 	CALL SUBOPT_0x21
                 ; 0001 08E7         hc(3,10);wn16s(imin);
000b92 940e 115c 	CALL SUBOPT_0x28
000b94 935a      	ST   -Y,R21
000b95 934a      	ST   -Y,R20
000b96 940e 112e 	CALL SUBOPT_0x20
                 ; 0001 08E8         hc(4,10);wn16s(admin);
000b98 940e 11c1 	CALL SUBOPT_0x3B
000b9a 940e 11d6 	CALL SUBOPT_0x3E
                 ; 0001 08E9 
                 ; 0001 08EA         if((imin-iminlast > 1)||(imin-iminlast <-1))  //tranh truong hop nhay bo trang thai
000b9c 81ae      	LDD  R26,Y+6
000b9d 81bf      	LDD  R27,Y+6+1
000b9e 01fa      	MOVW R30,R20
000b9f 1bea      	SUB  R30,R26
000ba0 0bfb      	SBC  R31,R27
000ba1 01df      	MOVW R26,R30
000ba2 9732      	SBIW R30,2
000ba3 f42c      	BRGE _0x201EF
000ba4 01fd      	MOVW R30,R26
000ba5 3fef      	CPI  R30,LOW(0xFFFF)
000ba6 efaf      	LDI  R26,HIGH(0xFFFF)
000ba7 07fa      	CPC  R31,R26
000ba8 f40c      	BRGE _0x201EE
                 _0x201EF:
                 ; 0001 08EB         {
                 ; 0001 08EC         }
                 ; 0001 08ED         else
000ba9 c038      	RJMP _0x201F1
                 _0x201EE:
                 ; 0001 08EE         {
                 ; 0001 08EF              switch(imin)
000baa 01fa      	MOVW R30,R20
                 ; 0001 08F0             {
                 ; 0001 08F1               case 0:
000bab 9730      	SBIW R30,0
000bac f449      	BRNE _0x201F5
                 ; 0001 08F2                   vMLtoi(1); vMRtoi(15) ;
000bad 940e 119e 	CALL SUBOPT_0x33
000baf 940e 11a6 	CALL SUBOPT_0x35
                 ; 0001 08F3                   //flagblindT = 0;
                 ; 0001 08F4                   flagblindP = 1;
000bb1 e0e1      	LDI  R30,LOW(1)
000bb2 e0f0      	LDI  R31,HIGH(1)
000bb3 8fe8      	STD  Y+24,R30
000bb4 8ff9      	STD  Y+24+1,R31
                 ; 0001 08F5                 break;
000bb5 c02a      	RJMP _0x201F4
                 ; 0001 08F6               case 1:
                 _0x201F5:
000bb6 30e1      	CPI  R30,LOW(0x1)
000bb7 e0a0      	LDI  R26,HIGH(0x1)
000bb8 07fa      	CPC  R31,R26
000bb9 f439      	BRNE _0x201F6
                 ; 0001 08F7                   vMLtoi(2); vMRtoi(8) ;
000bba e0e2      	LDI  R30,LOW(2)
000bbb 93ea      	ST   -Y,R30
000bbc d953      	RCALL _vMLtoi
000bbd e0e8      	LDI  R30,LOW(8)
000bbe 93ea      	ST   -Y,R30
000bbf d968      	RCALL _vMRtoi
                 ; 0001 08F8                 break;
000bc0 c01f      	RJMP _0x201F4
                 ; 0001 08F9               case 2:
                 _0x201F6:
000bc1 30e2      	CPI  R30,LOW(0x2)
000bc2 e0a0      	LDI  R26,HIGH(0x2)
000bc3 07fa      	CPC  R31,R26
000bc4 f439      	BRNE _0x201F7
                 ; 0001 08FA                   vMLtoi(10);vMRtoi(10) ;
000bc5 e0ea      	LDI  R30,LOW(10)
000bc6 93ea      	ST   -Y,R30
000bc7 d948      	RCALL _vMLtoi
000bc8 e0ea      	LDI  R30,LOW(10)
000bc9 93ea      	ST   -Y,R30
000bca d95d      	RCALL _vMRtoi
                 ; 0001 08FB                 break;
000bcb c014      	RJMP _0x201F4
                 ; 0001 08FC               case 3:
                 _0x201F7:
000bcc 30e3      	CPI  R30,LOW(0x3)
000bcd e0a0      	LDI  R26,HIGH(0x3)
000bce 07fa      	CPC  R31,R26
000bcf f421      	BRNE _0x201F8
                 ; 0001 08FD                  vMLtoi(8); vMRtoi(2) ;
000bd0 e0e8      	LDI  R30,LOW(8)
000bd1 940e 120a 	CALL SUBOPT_0x47
                 ; 0001 08FE                 break;
000bd3 c00c      	RJMP _0x201F4
                 ; 0001 08FF               case 4:
                 _0x201F8:
000bd4 30e4      	CPI  R30,LOW(0x4)
000bd5 e0a0      	LDI  R26,HIGH(0x4)
000bd6 07fa      	CPC  R31,R26
000bd7 f441      	BRNE _0x201FA
                 ; 0001 0900                   vMLtoi(15);vMRtoi(1)  ;
000bd8 940e 11aa 	CALL SUBOPT_0x36
000bda 940e 11ae 	CALL SUBOPT_0x37
                 ; 0001 0901                   flagblindT = 1;
000bdc e0e1      	LDI  R30,LOW(1)
000bdd e0f0      	LDI  R31,HIGH(1)
000bde 8fea      	STD  Y+26,R30
000bdf 8ffb      	STD  Y+26+1,R31
                 ; 0001 0902                   //flagblindP = 0;
                 ; 0001 0903                 break;
                 ; 0001 0904               default:
                 _0x201FA:
                 ; 0001 0905                  // vMLtoi(5); vMRtoi(5) ;
                 ; 0001 0906                 break;
                 ; 0001 0907             }
                 _0x201F4:
                 ; 0001 0908 
                 ; 0001 0909               iminlast=imin;
                +
000be0 834e     +STD Y + 6 , R20
000be1 835f     +STD Y + 6 + 1 , R21
                 	__PUTWSR 20,21,6
                 ; 0001 090A          }
                 _0x201F1:
                 ; 0001 090B 
                 ; 0001 090C 
                 ; 0001 090D             while(flagblindT == 1 && keyKT!=0) //lac duong ben trai
                 _0x201FB:
000be2 8daa      	LDD  R26,Y+26
000be3 8dbb      	LDD  R27,Y+26+1
000be4 9711      	SBIW R26,1
000be5 f419      	BRNE _0x201FE
000be6 940e 11b7 	CALL SUBOPT_0x39
000be8 f409      	BRNE _0x201FF
                 _0x201FE:
000be9 c026      	RJMP _0x201FD
                 _0x201FF:
                 ; 0001 090E             {
                 ; 0001 090F                vMLtoi(20);vMRtoi(2)  ;
000bea e1e4      	LDI  R30,LOW(20)
000beb 940e 120a 	CALL SUBOPT_0x47
                 ; 0001 0910                readline();
000bed 940e 11c4 	CALL SUBOPT_0x3C
                 ; 0001 0911                admin = IRLINE[0];imin=0;
                 ; 0001 0912                for(i=1;i<5;i++){if(admin>IRLINE[i]){admin=IRLINE[i];imin=i;}}
                 _0x20201:
                +
000bef 3005     +CPI R16 , LOW ( 5 )
000bf0 e0e0     +LDI R30 , HIGH ( 5 )
000bf1 071e     +CPC R17 , R30
                 	__CPWRN 16,17,5
000bf2 f48c      	BRGE _0x20202
000bf3 940e 1175 	CALL SUBOPT_0x2C
000bf5 940e 1180 	CALL SUBOPT_0x2E
000bf7 940e 11d1 	CALL SUBOPT_0x3D
000bf9 f438      	BRSH _0x20203
000bfa 940e 1175 	CALL SUBOPT_0x2C
000bfc 940e 1180 	CALL SUBOPT_0x2E
000bfe a3eb      	STD  Y+35,R30
000bff a3fc      	STD  Y+35+1,R31
000c00 01a8      	MOVW R20,R16
                 _0x20203:
                +
000c01 5f0f     +SUBI R16 , LOW ( - 1 )
000c02 4f1f     +SBCI R17 , HIGH ( - 1 )
                 	__ADDWRN 16,17,1
000c03 cfeb      	RJMP _0x20201
                 _0x20202:
                 ; 0001 0913                iminlast=imin;
                +
000c04 834e     +STD Y + 6 , R20
000c05 835f     +STD Y + 6 + 1 , R21
                 	__PUTWSR 20,21,6
                 ; 0001 0914                if(IRLINE[2]<310)  flagblindT=0;
000c06 940e 117b 	CALL SUBOPT_0x2D
000c08 33a6      	CPI  R26,LOW(0x136)
000c09 e0e1      	LDI  R30,HIGH(0x136)
000c0a 07be      	CPC  R27,R30
000c0b f418      	BRSH _0x20204
000c0c e0e0      	LDI  R30,LOW(0)
000c0d 8fea      	STD  Y+26,R30
000c0e 8feb      	STD  Y+26+1,R30
                 ; 0001 0915 
                 ; 0001 0916             }
                 _0x20204:
000c0f cfd2      	RJMP _0x201FB
                 _0x201FD:
                 ; 0001 0917             while(flagblindP ==1 && keyKT!=0) //lac duong ben phai
                 _0x20205:
000c10 8da8      	LDD  R26,Y+24
000c11 8db9      	LDD  R27,Y+24+1
000c12 9711      	SBIW R26,1
000c13 f419      	BRNE _0x20208
000c14 940e 11b7 	CALL SUBOPT_0x39
000c16 f409      	BRNE _0x20209
                 _0x20208:
000c17 c028      	RJMP _0x20207
                 _0x20209:
                 ; 0001 0918             {
                 ; 0001 0919                vMLtoi(2);vMRtoi(20)  ;
000c18 e0e2      	LDI  R30,LOW(2)
000c19 93ea      	ST   -Y,R30
000c1a d8f5      	RCALL _vMLtoi
000c1b 940e 11a2 	CALL SUBOPT_0x34
                 ; 0001 091A                readline();
000c1d 940e 11c4 	CALL SUBOPT_0x3C
                 ; 0001 091B                admin = IRLINE[0];imin=0;
                 ; 0001 091C                for(i=1;i<5;i++){if(admin>IRLINE[i]){admin=IRLINE[i];imin=i;}}
                 _0x2020B:
                +
000c1f 3005     +CPI R16 , LOW ( 5 )
000c20 e0e0     +LDI R30 , HIGH ( 5 )
000c21 071e     +CPC R17 , R30
                 	__CPWRN 16,17,5
000c22 f48c      	BRGE _0x2020C
000c23 940e 1175 	CALL SUBOPT_0x2C
000c25 940e 1180 	CALL SUBOPT_0x2E
000c27 940e 11d1 	CALL SUBOPT_0x3D
000c29 f438      	BRSH _0x2020D
000c2a 940e 1175 	CALL SUBOPT_0x2C
000c2c 940e 1180 	CALL SUBOPT_0x2E
000c2e a3eb      	STD  Y+35,R30
000c2f a3fc      	STD  Y+35+1,R31
000c30 01a8      	MOVW R20,R16
                 _0x2020D:
                +
000c31 5f0f     +SUBI R16 , LOW ( - 1 )
000c32 4f1f     +SBCI R17 , HIGH ( - 1 )
                 	__ADDWRN 16,17,1
000c33 cfeb      	RJMP _0x2020B
                 _0x2020C:
                 ; 0001 091D                iminlast=imin;
                +
000c34 834e     +STD Y + 6 , R20
000c35 835f     +STD Y + 6 + 1 , R21
                 	__PUTWSR 20,21,6
                 ; 0001 091E                if(IRLINE[2]<310)  flagblindP=0;
000c36 940e 117b 	CALL SUBOPT_0x2D
000c38 33a6      	CPI  R26,LOW(0x136)
000c39 e0e1      	LDI  R30,HIGH(0x136)
000c3a 07be      	CPC  R27,R30
000c3b f418      	BRSH _0x2020E
000c3c e0e0      	LDI  R30,LOW(0)
000c3d 8fe8      	STD  Y+24,R30
000c3e 8fe9      	STD  Y+24+1,R30
                 ; 0001 091F 
                 ; 0001 0920             }
                 _0x2020E:
000c3f cfd0      	RJMP _0x20205
                 _0x20207:
                 ; 0001 0921 
                 ; 0001 0922 
                 ; 0001 0923        demled++;
000c40 8dec      	LDD  R30,Y+28
000c41 8dfd      	LDD  R31,Y+28+1
000c42 9631      	ADIW R30,1
000c43 8fec      	STD  Y+28,R30
000c44 8ffd      	STD  Y+28+1,R31
                 ; 0001 0924        if(demled>30){demled=0;LEDLtoggle();LEDRtoggle(); }
000c45 8dac      	LDD  R26,Y+28
000c46 8dbd      	LDD  R27,Y+28+1
000c47 975f      	SBIW R26,31
000c48 f028      	BRLO _0x2020F
000c49 e0e0      	LDI  R30,LOW(0)
000c4a 8fec      	STD  Y+28,R30
000c4b 8fed      	STD  Y+28+1,R30
000c4c 940e 1171 	CALL SUBOPT_0x2B
                 ; 0001 0925    }
                 _0x2020F:
000c4e cf20      	RJMP _0x201E7
                 _0x201E9:
                 ; 0001 0926 }
000c4f 940e 1519 	CALL __LOADLOCR6
000c51 96ed      	ADIW R28,61
000c52 9508      	RET
                 
                 	.DSEG
                 _0x201C2:
00028a           	.BYTE 0x13
                 ;//========================================================
                 ;void bluetooth()
                 ; 0001 0929 {  unsigned char kytu;
                 
                 	.CSEG
                 _bluetooth:
                 ; 0001 092A    unsigned int demled;
                 ; 0001 092B 
                 ; 0001 092C         LcdClear();
000c53 940e 1514 	CALL __SAVELOCR4
                 ;	kytu -> R17
                 ;	demled -> R18,R19
000c55 940e 1211 	CALL SUBOPT_0x48
                 ; 0001 092D         hc(0,10);
000c57 940e 115c 	CALL SUBOPT_0x28
                 ; 0001 092E         ws ("BLUETOOTH");
                +
000c59 e9ed     +LDI R30 , LOW ( _0x20210 + ( 0 ) )
000c5a e0f2     +LDI R31 , HIGH ( _0x20210 + ( 0 ) )
                 	__POINTW1MN _0x20210,0
000c5b 940e 10bf 	CALL SUBOPT_0xE
                 ; 0001 092F         hc(1,25);
000c5d 940e 114b 	CALL SUBOPT_0x25
000c5f e1e9      	LDI  R30,LOW(25)
000c60 e0f0      	LDI  R31,HIGH(25)
000c61 940e 1214 	CALL SUBOPT_0x49
                 ; 0001 0930         ws ("DRIVE");
                +
000c63 eae7     +LDI R30 , LOW ( _0x20210 + ( 10 ) )
000c64 e0f2     +LDI R31 , HIGH ( _0x20210 + ( 10 ) )
                 	__POINTW1MN _0x20210,10
000c65 940e 10bf 	CALL SUBOPT_0xE
                 ; 0001 0931 
                 ; 0001 0932         LEDL=1;LEDR=1;
000c67 9aac      	SBI  0x15,4
000c68 9aad      	SBI  0x15,5
                 ; 0001 0933 
                 ; 0001 0934    while(keyKT!=0)
                 _0x20215:
000c69 9b98      	SBIS 0x13,0
000c6a c037      	RJMP _0x20217
                 ; 0001 0935    {
                 ; 0001 0936         LEDL=1; LEDR=1;
000c6b 940e 1218 	CALL SUBOPT_0x4A
                 ; 0001 0937         delay_ms(100);
                 ; 0001 0938         LEDL=0; LEDR=0;
                 ; 0001 0939         delay_ms(100);
                 ; 0001 093A 
                 ; 0001 093B       if (rx_counter)
000c6d 91e0 056d 	LDS  R30,_rx_counter
000c6f 30e0      	CPI  R30,0
000c70 f181      	BREQ _0x20220
                 ; 0001 093C       {
                 ; 0001 093D        //LcdClear();
                 ; 0001 093E        hc(2,42);
000c71 940e 1146 	CALL SUBOPT_0x24
000c73 940e 1162 	CALL SUBOPT_0x29
                 ; 0001 093F        kytu = getchar();
000c75 940e 0481 	CALL _getchar
000c77 2f1e      	MOV  R17,R30
                 ; 0001 0940        LcdCharacter(kytu);
000c78 931a      	ST   -Y,R17
000c79 940e 0392 	CALL _LcdCharacter
                 ; 0001 0941        //putchar(getchar());
                 ; 0001 0942        if(kytu=='S'){vMLtoi(0);vMRtoi(0);}
000c7b 3513      	CPI  R17,83
000c7c f419      	BRNE _0x20221
000c7d e0e0      	LDI  R30,LOW(0)
000c7e 940e 1228 	CALL SUBOPT_0x4B
                 ; 0001 0943        if(kytu=='F'){vMLtoi(100);vMRtoi(100);}
                 _0x20221:
000c80 3416      	CPI  R17,70
000c81 f419      	BRNE _0x20222
000c82 e6e4      	LDI  R30,LOW(100)
000c83 940e 122f 	CALL SUBOPT_0x4C
                 ; 0001 0944        if(kytu=='B'){vMLlui(100);vMRlui(100);}
                 _0x20222:
000c85 3412      	CPI  R17,66
000c86 f431      	BRNE _0x20223
000c87 e6e4      	LDI  R30,LOW(100)
000c88 93ea      	ST   -Y,R30
000c89 d88c      	RCALL _vMLlui
000c8a e6e4      	LDI  R30,LOW(100)
000c8b 93ea      	ST   -Y,R30
000c8c d89f      	RCALL _vMRlui
                 ; 0001 0945        if(kytu=='R'){vMLtoi(100);vMRtoi(0);}
                 _0x20223:
000c8d 3512      	CPI  R17,82
000c8e f419      	BRNE _0x20224
000c8f e6e4      	LDI  R30,LOW(100)
000c90 940e 1228 	CALL SUBOPT_0x4B
                 ; 0001 0946        if(kytu=='L'){vMLtoi(0);vMRtoi(100);}
                 _0x20224:
000c92 341c      	CPI  R17,76
000c93 f419      	BRNE _0x20225
000c94 e0e0      	LDI  R30,LOW(0)
000c95 940e 122f 	CALL SUBOPT_0x4C
                 ; 0001 0947 
                 ; 0001 0948        demled++;
                 _0x20225:
                +
000c97 5f2f     +SUBI R18 , LOW ( - 1 )
000c98 4f3f     +SBCI R19 , HIGH ( - 1 )
                 	__ADDWRN 18,19,1
                 ; 0001 0949        if(demled>1000){demled=0;LEDLtoggle(); LEDRtoggle();}
                +
000c99 3e29     +CPI R18 , LOW ( 1001 )
000c9a e0e3     +LDI R30 , HIGH ( 1001 )
000c9b 073e     +CPC R19 , R30
                 	__CPWRN 18,19,1001
000c9c f020      	BRLO _0x20226
                +
000c9d e020     +LDI R18 , LOW ( 0 )
000c9e e030     +LDI R19 , HIGH ( 0 )
                 	__GETWRN 18,19,0
000c9f 940e 1171 	CALL SUBOPT_0x2B
                 ; 0001 094A       }
                 _0x20226:
                 ; 0001 094B     }
                 _0x20220:
000ca1 cfc7      	RJMP _0x20215
                 _0x20217:
                 ; 0001 094C }
000ca2 940e 151b 	CALL __LOADLOCR4
000ca4 940c 1002 	JMP  _0x20C0002
                 
                 	.DSEG
                 _0x20210:
00029d           	.BYTE 0x10
                 ;//========================================================
                 ;
                 ;//Chuong trinh test robot
                 ;   void testmotor()
                 ; 0001 0951    {
                 
                 	.CSEG
                 _testmotor:
                 ; 0001 0952         LcdClear();
000ca6 940e 1211 	CALL SUBOPT_0x48
                 ; 0001 0953         hc(0,10);
000ca8 940e 115c 	CALL SUBOPT_0x28
                 ; 0001 0954         ws ("TEST MOTOR");
                +
000caa eaed     +LDI R30 , LOW ( _0x20227 + ( 0 ) )
000cab e0f2     +LDI R31 , HIGH ( _0x20227 + ( 0 ) )
                 	__POINTW1MN _0x20227,0
000cac 940e 10bf 	CALL SUBOPT_0xE
                 ; 0001 0955 
                 ; 0001 0956         vMRtoi(20);
000cae 940e 11a2 	CALL SUBOPT_0x34
                 ; 0001 0957         vMLtoi(20);
000cb0 e1e4      	LDI  R30,LOW(20)
000cb1 93ea      	ST   -Y,R30
000cb2 d85d      	RCALL _vMLtoi
                 ; 0001 0958       while(keyKT!=0)
                 _0x20228:
000cb3 9b98      	SBIS 0x13,0
000cb4 c02b      	RJMP _0x2022A
                 ; 0001 0959       {
                 ; 0001 095A         hc(2,0);
000cb5 940e 1146 	CALL SUBOPT_0x24
000cb7 940e 1084 	CALL SUBOPT_0x7
000cb9 940e 0387 	CALL _hc
                 ; 0001 095B         ws ("MotorL");
                +
000cbb ebe8     +LDI R30 , LOW ( _0x20227 + ( 11 ) )
000cbc e0f2     +LDI R31 , HIGH ( _0x20227 + ( 11 ) )
                 	__POINTW1MN _0x20227,11
000cbd 940e 10bf 	CALL SUBOPT_0xE
                 ; 0001 095C         hc(2,45);
000cbf 940e 1146 	CALL SUBOPT_0x24
000cc1 e2ed      	LDI  R30,LOW(45)
000cc2 e0f0      	LDI  R31,HIGH(45)
000cc3 940e 1214 	CALL SUBOPT_0x49
                 ; 0001 095D         wn16(QEL);
000cc5 940e 10f4 	CALL SUBOPT_0x17
000cc7 940e 10bb 	CALL SUBOPT_0xD
                 ; 0001 095E         hc(3,0);
000cc9 940e 1236 	CALL SUBOPT_0x4D
000ccb 940e 1084 	CALL SUBOPT_0x7
000ccd 940e 0387 	CALL _hc
                 ; 0001 095F         ws ("MotorR");
                +
000ccf ebef     +LDI R30 , LOW ( _0x20227 + ( 18 ) )
000cd0 e0f2     +LDI R31 , HIGH ( _0x20227 + ( 18 ) )
                 	__POINTW1MN _0x20227,18
000cd1 940e 10bf 	CALL SUBOPT_0xE
                 ; 0001 0960         hc(3,45);
000cd3 940e 1236 	CALL SUBOPT_0x4D
000cd5 e2ed      	LDI  R30,LOW(45)
000cd6 e0f0      	LDI  R31,HIGH(45)
000cd7 940e 1214 	CALL SUBOPT_0x49
                 ; 0001 0961         wn16(QER);
000cd9 940e 10ef 	CALL SUBOPT_0x16
000cdb 940e 10bb 	CALL SUBOPT_0xD
                 ; 0001 0962         delay_ms(10);
000cdd 940e 123b 	CALL SUBOPT_0x4E
                 ; 0001 0963       }
000cdf cfd3      	RJMP _0x20228
                 _0x2022A:
                 ; 0001 0964 
                 ; 0001 0965        vMRstop();
000ce0 d856      	RCALL _vMRstop
                 ; 0001 0966        vMLstop();
000ce1 d83a      	RCALL _vMLstop
                 ; 0001 0967    }
000ce2 9508      	RET
                 
                 	.DSEG
                 _0x20227:
0002ad           	.BYTE 0x19
                 ; //========================================================
                 ; // UART TEST
                 ;   void testuart()
                 ; 0001 096B    {
                 
                 	.CSEG
                 _testuart:
                 ; 0001 096C           if (rx_counter)
000ce3 91e0 056d 	LDS  R30,_rx_counter
000ce5 30e0      	CPI  R30,0
000ce6 f069      	BREQ _0x2022B
                 ; 0001 096D           {
                 ; 0001 096E           LcdClear();
000ce7 940e 1211 	CALL SUBOPT_0x48
                 ; 0001 096F            hc(0,10);
000ce9 940e 115c 	CALL SUBOPT_0x28
                 ; 0001 0970            ws ("TEST UART");
                +
000ceb ece6     +LDI R30 , LOW ( _0x2022C + ( 0 ) )
000cec e0f2     +LDI R31 , HIGH ( _0x2022C + ( 0 ) )
                 	__POINTW1MN _0x2022C,0
000ced 940e 10bf 	CALL SUBOPT_0xE
                 ; 0001 0971            putchar(getchar());
000cef 940e 0481 	CALL _getchar
000cf1 93ea      	ST   -Y,R30
000cf2 940e 04c1 	CALL _putchar
                 ; 0001 0972           }
                 ; 0001 0973 
                 ; 0001 0974    }
                 _0x2022B:
000cf4 9508      	RET
                 
                 	.DSEG
                 _0x2022C:
0002c6           	.BYTE 0xA
                 ;   //========================================================
                 ; // UART TEST
                 ;   void testrf()
                 ; 0001 0978    {
                 
                 	.CSEG
                 _testrf:
                 ; 0001 0979 
                 ; 0001 097A 
                 ; 0001 097B    }
000cf5 9508      	RET
                 ;
                 ;//========================================================
                 ;   void testir()
                 ; 0001 097F    {    unsigned int AD[8];
                 _testir:
                 ; 0001 0980 
                 ; 0001 0981         DDRA    = 0x00;
000cf6 9760      	SBIW R28,16
                 ;	AD -> Y+0
000cf7 e0e0      	LDI  R30,LOW(0)
000cf8 bbea      	OUT  0x1A,R30
                 ; 0001 0982         PORTA   = 0x00;
000cf9 bbeb      	OUT  0x1B,R30
                 ; 0001 0983 
                 ; 0001 0984         clear();
000cfa 940e 03ce 	CALL _clear
                 ; 0001 0985         hc(0,10);
000cfc 940e 1084 	CALL SUBOPT_0x7
000cfe 940e 115c 	CALL SUBOPT_0x28
                 ; 0001 0986         ws ("TEST IR");
                +
000d00 ede0     +LDI R30 , LOW ( _0x2022D + ( 0 ) )
000d01 e0f2     +LDI R31 , HIGH ( _0x2022D + ( 0 ) )
                 	__POINTW1MN _0x2022D,0
000d02 940e 10bf 	CALL SUBOPT_0xE
                 ; 0001 0987 
                 ; 0001 0988         while(keyKT!=0)
                 _0x2022E:
000d04 9b98      	SBIS 0x13,0
000d05 c09f      	RJMP _0x20230
                 ; 0001 0989         {
                 ; 0001 098A 
                 ; 0001 098B         AD[0]=read_adc(0);
000d06 e0e0      	LDI  R30,LOW(0)
000d07 93ea      	ST   -Y,R30
000d08 940e 044a 	CALL _read_adc
000d0a 83e8      	ST   Y,R30
000d0b 83f9      	STD  Y+1,R31
                 ; 0001 098C         AD[1]=read_adc(1);
000d0c e0e1      	LDI  R30,LOW(1)
000d0d 93ea      	ST   -Y,R30
000d0e 940e 044a 	CALL _read_adc
000d10 83ea      	STD  Y+2,R30
000d11 83fb      	STD  Y+2+1,R31
                 ; 0001 098D         AD[2]=read_adc(2);
000d12 e0e2      	LDI  R30,LOW(2)
000d13 93ea      	ST   -Y,R30
000d14 940e 044a 	CALL _read_adc
000d16 83ec      	STD  Y+4,R30
000d17 83fd      	STD  Y+4+1,R31
                 ; 0001 098E         AD[3]=read_adc(3);
000d18 e0e3      	LDI  R30,LOW(3)
000d19 93ea      	ST   -Y,R30
000d1a 940e 044a 	CALL _read_adc
000d1c 83ee      	STD  Y+6,R30
000d1d 83ff      	STD  Y+6+1,R31
                 ; 0001 098F         AD[4]=read_adc(4);
000d1e e0e4      	LDI  R30,LOW(4)
000d1f 93ea      	ST   -Y,R30
000d20 940e 044a 	CALL _read_adc
000d22 87e8      	STD  Y+8,R30
000d23 87f9      	STD  Y+8+1,R31
                 ; 0001 0990         AD[5]=read_adc(5);
000d24 e0e5      	LDI  R30,LOW(5)
000d25 93ea      	ST   -Y,R30
000d26 940e 044a 	CALL _read_adc
000d28 87ea      	STD  Y+10,R30
000d29 87fb      	STD  Y+10+1,R31
                 ; 0001 0991         AD[6]=read_adc(6);
000d2a e0e6      	LDI  R30,LOW(6)
000d2b 93ea      	ST   -Y,R30
000d2c 940e 044a 	CALL _read_adc
000d2e 87ec      	STD  Y+12,R30
000d2f 87fd      	STD  Y+12+1,R31
                 ; 0001 0992         AD[7]=read_adc(7);
000d30 e0e7      	LDI  R30,LOW(7)
000d31 93ea      	ST   -Y,R30
000d32 940e 044a 	CALL _read_adc
000d34 87ee      	STD  Y+14,R30
000d35 87ff      	STD  Y+14+1,R31
                 ; 0001 0993 
                 ; 0001 0994         hc(1,0) ;ws("0.");wn164(AD[0]);
000d36 940e 114b 	CALL SUBOPT_0x25
000d38 940e 1084 	CALL SUBOPT_0x7
000d3a 940e 0387 	CALL _hc
                +
000d3c ede8     +LDI R30 , LOW ( _0x2022D + ( 8 ) )
000d3d e0f2     +LDI R31 , HIGH ( _0x2022D + ( 8 ) )
                 	__POINTW1MN _0x2022D,8
000d3e 940e 10bf 	CALL SUBOPT_0xE
000d40 81e8      	LD   R30,Y
000d41 81f9      	LDD  R31,Y+1
000d42 940e 1241 	CALL SUBOPT_0x4F
                 ; 0001 0995         hc(1,43);ws("1.");wn164(AD[1]);
000d44 940e 114b 	CALL SUBOPT_0x25
000d46 940e 1245 	CALL SUBOPT_0x50
                +
000d48 edeb     +LDI R30 , LOW ( _0x2022D + ( 11 ) )
000d49 e0f2     +LDI R31 , HIGH ( _0x2022D + ( 11 ) )
                 	__POINTW1MN _0x2022D,11
000d4a 940e 10bf 	CALL SUBOPT_0xE
000d4c 81ea      	LDD  R30,Y+2
000d4d 81fb      	LDD  R31,Y+2+1
000d4e 940e 1241 	CALL SUBOPT_0x4F
                 ; 0001 0996         hc(2,0) ;ws("2.");wn164(AD[2]);
000d50 940e 1146 	CALL SUBOPT_0x24
000d52 940e 1084 	CALL SUBOPT_0x7
000d54 940e 0387 	CALL _hc
                +
000d56 edee     +LDI R30 , LOW ( _0x2022D + ( 14 ) )
000d57 e0f2     +LDI R31 , HIGH ( _0x2022D + ( 14 ) )
                 	__POINTW1MN _0x2022D,14
000d58 940e 10bf 	CALL SUBOPT_0xE
000d5a 81ec      	LDD  R30,Y+4
000d5b 81fd      	LDD  R31,Y+4+1
000d5c 940e 1241 	CALL SUBOPT_0x4F
                 ; 0001 0997         hc(2,43);ws("3.");wn164(AD[3]);
000d5e 940e 1146 	CALL SUBOPT_0x24
000d60 940e 1245 	CALL SUBOPT_0x50
                +
000d62 eee1     +LDI R30 , LOW ( _0x2022D + ( 17 ) )
000d63 e0f2     +LDI R31 , HIGH ( _0x2022D + ( 17 ) )
                 	__POINTW1MN _0x2022D,17
000d64 940e 10bf 	CALL SUBOPT_0xE
000d66 81ee      	LDD  R30,Y+6
000d67 81ff      	LDD  R31,Y+6+1
000d68 940e 1241 	CALL SUBOPT_0x4F
                 ; 0001 0998         hc(3,0) ;ws("4.");wn164(AD[4]);
000d6a 940e 1236 	CALL SUBOPT_0x4D
000d6c 940e 1084 	CALL SUBOPT_0x7
000d6e 940e 0387 	CALL _hc
                +
000d70 eee4     +LDI R30 , LOW ( _0x2022D + ( 20 ) )
000d71 e0f2     +LDI R31 , HIGH ( _0x2022D + ( 20 ) )
                 	__POINTW1MN _0x2022D,20
000d72 940e 10bf 	CALL SUBOPT_0xE
000d74 85e8      	LDD  R30,Y+8
000d75 85f9      	LDD  R31,Y+8+1
000d76 940e 1241 	CALL SUBOPT_0x4F
                 ; 0001 0999         hc(3,43);ws("5.");wn164(AD[5]);
000d78 940e 1236 	CALL SUBOPT_0x4D
000d7a 940e 1245 	CALL SUBOPT_0x50
                +
000d7c eee7     +LDI R30 , LOW ( _0x2022D + ( 23 ) )
000d7d e0f2     +LDI R31 , HIGH ( _0x2022D + ( 23 ) )
                 	__POINTW1MN _0x2022D,23
000d7e 940e 10bf 	CALL SUBOPT_0xE
000d80 85ea      	LDD  R30,Y+10
000d81 85fb      	LDD  R31,Y+10+1
000d82 940e 1241 	CALL SUBOPT_0x4F
                 ; 0001 099A         hc(4,0) ;ws("6.");wn164(AD[6]);
000d84 e0e4      	LDI  R30,LOW(4)
000d85 e0f0      	LDI  R31,HIGH(4)
000d86 93fa      	ST   -Y,R31
000d87 93ea      	ST   -Y,R30
000d88 940e 1084 	CALL SUBOPT_0x7
000d8a 940e 0387 	CALL _hc
                +
000d8c eeea     +LDI R30 , LOW ( _0x2022D + ( 26 ) )
000d8d e0f2     +LDI R31 , HIGH ( _0x2022D + ( 26 ) )
                 	__POINTW1MN _0x2022D,26
000d8e 940e 10bf 	CALL SUBOPT_0xE
000d90 85ec      	LDD  R30,Y+12
000d91 85fd      	LDD  R31,Y+12+1
000d92 940e 1241 	CALL SUBOPT_0x4F
                 ; 0001 099B         hc(4,43);ws("7.");wn164(AD[7]);
000d94 e0e4      	LDI  R30,LOW(4)
000d95 e0f0      	LDI  R31,HIGH(4)
000d96 93fa      	ST   -Y,R31
000d97 93ea      	ST   -Y,R30
000d98 940e 1245 	CALL SUBOPT_0x50
                +
000d9a eeed     +LDI R30 , LOW ( _0x2022D + ( 29 ) )
000d9b e0f2     +LDI R31 , HIGH ( _0x2022D + ( 29 ) )
                 	__POINTW1MN _0x2022D,29
000d9c 940e 10bf 	CALL SUBOPT_0xE
000d9e 85ee      	LDD  R30,Y+14
000d9f 85ff      	LDD  R31,Y+14+1
000da0 940e 1241 	CALL SUBOPT_0x4F
                 ; 0001 099C 
                 ; 0001 099D         delay_ms(1000);
000da2 940e 10b0 	CALL SUBOPT_0xB
                 ; 0001 099E         }
000da4 cf5f      	RJMP _0x2022E
                 _0x20230:
                 ; 0001 099F 
                 ; 0001 09A0    }
000da5 9660      	ADIW R28,16
000da6 9508      	RET
                 
                 	.DSEG
                 _0x2022D:
0002d0           	.BYTE 0x20
                 ;
                 ;//========================================================
                 ; void outlcd1()
                 ; 0001 09A4  {
                 
                 	.CSEG
                 _outlcd1:
                 ; 0001 09A5      LcdClear();
000da7 940e 1211 	CALL SUBOPT_0x48
                 ; 0001 09A6      hc(0,5);
000da9 e0e5      	LDI  R30,LOW(5)
000daa e0f0      	LDI  R31,HIGH(5)
000dab 940e 1214 	CALL SUBOPT_0x49
                 ; 0001 09A7      ws("<SELF TEST>");
                +
000dad efe0     +LDI R30 , LOW ( _0x20231 + ( 0 ) )
000dae e0f2     +LDI R31 , HIGH ( _0x20231 + ( 0 ) )
                 	__POINTW1MN _0x20231,0
000daf 940e 10bf 	CALL SUBOPT_0xE
                 ; 0001 09A8      hc(1,0);
000db1 940e 114b 	CALL SUBOPT_0x25
000db3 940e 1084 	CALL SUBOPT_0x7
000db5 940e 0387 	CALL _hc
                 ; 0001 09A9      ws("************");
                +
000db7 efec     +LDI R30 , LOW ( _0x20231 + ( 12 ) )
000db8 e0f2     +LDI R31 , HIGH ( _0x20231 + ( 12 ) )
                 	__POINTW1MN _0x20231,12
000db9 940e 10bf 	CALL SUBOPT_0xE
                 ; 0001 09AA  }
000dbb 9508      	RET
                 
                 	.DSEG
                 _0x20231:
0002f0           	.BYTE 0x19
                 ;//========================================================
                 ;void chopledtheoid()
                 ; 0001 09AD {    unsigned char i;
                 
                 	.CSEG
                 _chopledtheoid:
                 ; 0001 09AE         DDRA=0xFF;
000dbc 931a      	ST   -Y,R17
                 ;	i -> R17
000dbd efef      	LDI  R30,LOW(255)
000dbe bbea      	OUT  0x1A,R30
                 ; 0001 09AF 
                 ; 0001 09B0          switch (id)
000dbf 940e 1248 	CALL SUBOPT_0x51
                 ; 0001 09B1             {
                 ; 0001 09B2                 case 1:
000dc1 f439      	BRNE _0x20235
                 ; 0001 09B3                     LEDR=1;
000dc2 9aad      	SBI  0x15,5
                 ; 0001 09B4                     LEDL=1;PORTA.4=1;delay_ms(10);
000dc3 9aac      	SBI  0x15,4
000dc4 9adc      	SBI  0x1B,4
000dc5 940e 123b 	CALL SUBOPT_0x4E
                 ; 0001 09B5                     LEDL=0;PORTA.4=0;delay_ms(30);
000dc7 98ac      	CBI  0x15,4
000dc8 c05d      	RJMP _0x202ED
                 ; 0001 09B6                 break;
                 ; 0001 09B7                 case 2:
                 _0x20235:
000dc9 30e2      	CPI  R30,LOW(0x2)
000dca e0a0      	LDI  R26,HIGH(0x2)
000dcb 07fa      	CPC  R31,R26
000dcc f441      	BRNE _0x20240
                 ; 0001 09B8                     LEDR=1;
000dcd 9aad      	SBI  0x15,5
                 ; 0001 09B9                     LEDL=1;PORTA.6=1;delay_ms(10);
000dce 9aac      	SBI  0x15,4
000dcf 9ade      	SBI  0x1B,6
000dd0 940e 123b 	CALL SUBOPT_0x4E
                 ; 0001 09BA                     LEDL=0;PORTA.6=0;delay_ms(30);
000dd2 98ac      	CBI  0x15,4
000dd3 98de      	CBI  0x1B,6
000dd4 c052      	RJMP _0x202EE
                 ; 0001 09BB                 break;
                 ; 0001 09BC                 case 3:
                 _0x20240:
000dd5 30e3      	CPI  R30,LOW(0x3)
000dd6 e0a0      	LDI  R26,HIGH(0x3)
000dd7 07fa      	CPC  R31,R26
000dd8 f441      	BRNE _0x2024B
                 ; 0001 09BD                     LEDR=1;
000dd9 9aad      	SBI  0x15,5
                 ; 0001 09BE                     LEDL=1;PORTA.7=1;delay_ms(10);
000dda 9aac      	SBI  0x15,4
000ddb 9adf      	SBI  0x1B,7
000ddc 940e 123b 	CALL SUBOPT_0x4E
                 ; 0001 09BF                     LEDL=0;PORTA.7=0;delay_ms(30);
000dde 98ac      	CBI  0x15,4
000ddf 98df      	CBI  0x1B,7
000de0 c046      	RJMP _0x202EE
                 ; 0001 09C0                 break;
                 ; 0001 09C1                 case 4:
                 _0x2024B:
000de1 30e4      	CPI  R30,LOW(0x4)
000de2 e0a0      	LDI  R26,HIGH(0x4)
000de3 07fa      	CPC  R31,R26
000de4 f441      	BRNE _0x20256
                 ; 0001 09C2                     LEDR=1;
000de5 9aad      	SBI  0x15,5
                 ; 0001 09C3                     LEDL=1;PORTA.5=1;delay_ms(10);
000de6 9aac      	SBI  0x15,4
000de7 9add      	SBI  0x1B,5
000de8 940e 123b 	CALL SUBOPT_0x4E
                 ; 0001 09C4                     LEDL=0;PORTA.5=0;delay_ms(30);
000dea 98ac      	CBI  0x15,4
000deb 98dd      	CBI  0x1B,5
000dec c03a      	RJMP _0x202EE
                 ; 0001 09C5                 break;
                 ; 0001 09C6                 case 5:
                 _0x20256:
000ded 30e5      	CPI  R30,LOW(0x5)
000dee e0a0      	LDI  R26,HIGH(0x5)
000def 07fa      	CPC  R31,R26
000df0 f431      	BRNE _0x20261
                 ; 0001 09C7                     LEDL=1;
000df1 9aac      	SBI  0x15,4
                 ; 0001 09C8                     LEDR=1;PORTA.4=1;delay_ms(10);
000df2 9aad      	SBI  0x15,5
000df3 9adc      	SBI  0x1B,4
000df4 940e 123b 	CALL SUBOPT_0x4E
                 ; 0001 09C9                     LEDR=0;PORTA.4=0;delay_ms(30);
000df6 c02e      	RJMP _0x202EF
                 ; 0001 09CA                 break;
                 ; 0001 09CB                 case 6:
                 _0x20261:
000df7 30e6      	CPI  R30,LOW(0x6)
000df8 e0a0      	LDI  R26,HIGH(0x6)
000df9 07fa      	CPC  R31,R26
000dfa f441      	BRNE _0x2026C
                 ; 0001 09CC                     LEDL=1;
000dfb 9aac      	SBI  0x15,4
                 ; 0001 09CD                     LEDR=1;PORTA.6=1;delay_ms(10);
000dfc 9aad      	SBI  0x15,5
000dfd 9ade      	SBI  0x1B,6
000dfe 940e 123b 	CALL SUBOPT_0x4E
                 ; 0001 09CE                     LEDR=0;PORTA.6=0;delay_ms(30);
000e00 98ad      	CBI  0x15,5
000e01 98de      	CBI  0x1B,6
000e02 c024      	RJMP _0x202EE
                 ; 0001 09CF                 break;
                 ; 0001 09D0                 case 7:
                 _0x2026C:
000e03 30e7      	CPI  R30,LOW(0x7)
000e04 e0a0      	LDI  R26,HIGH(0x7)
000e05 07fa      	CPC  R31,R26
000e06 f441      	BRNE _0x20277
                 ; 0001 09D1                     LEDL=1;
000e07 9aac      	SBI  0x15,4
                 ; 0001 09D2                     LEDR=1;PORTA.7=1;delay_ms(10);
000e08 9aad      	SBI  0x15,5
000e09 9adf      	SBI  0x1B,7
000e0a 940e 123b 	CALL SUBOPT_0x4E
                 ; 0001 09D3                     LEDR=0;PORTA.7=0;delay_ms(30);
000e0c 98ad      	CBI  0x15,5
000e0d 98df      	CBI  0x1B,7
000e0e c018      	RJMP _0x202EE
                 ; 0001 09D4                 break;
                 ; 0001 09D5                 case 8:
                 _0x20277:
000e0f 30e8      	CPI  R30,LOW(0x8)
000e10 e0a0      	LDI  R26,HIGH(0x8)
000e11 07fa      	CPC  R31,R26
000e12 f441      	BRNE _0x20282
                 ; 0001 09D6                     LEDL=1;
000e13 9aac      	SBI  0x15,4
                 ; 0001 09D7                     LEDR=1;PORTA.5=1;delay_ms(10);
000e14 9aad      	SBI  0x15,5
000e15 9add      	SBI  0x1B,5
000e16 940e 123b 	CALL SUBOPT_0x4E
                 ; 0001 09D8                     LEDR=0;PORTA.5=0;delay_ms(30);
000e18 98ad      	CBI  0x15,5
000e19 98dd      	CBI  0x1B,5
000e1a c00c      	RJMP _0x202EE
                 ; 0001 09D9                 break;
                 ; 0001 09DA                 case 9:
                 _0x20282:
000e1b 30e9      	CPI  R30,LOW(0x9)
000e1c e0a0      	LDI  R26,HIGH(0x9)
000e1d 07fa      	CPC  R31,R26
000e1e f461      	BRNE _0x20234
                 ; 0001 09DB                     LEDL=1;LEDR=1;PORTA.4=1;delay_ms(10);
000e1f 9aac      	SBI  0x15,4
000e20 9aad      	SBI  0x15,5
000e21 9adc      	SBI  0x1B,4
000e22 940e 123b 	CALL SUBOPT_0x4E
                 ; 0001 09DC                     LEDL=0;LEDR=0;PORTA.4=0;delay_ms(30);
000e24 98ac      	CBI  0x15,4
                 _0x202EF:
000e25 98ad      	CBI  0x15,5
                 _0x202ED:
000e26 98dc      	CBI  0x1B,4
                 _0x202EE:
000e27 e1ee      	LDI  R30,LOW(30)
000e28 e0f0      	LDI  R31,HIGH(30)
000e29 940e 124f 	CALL SUBOPT_0x52
                 ; 0001 09DD                 break;
                 ; 0001 09DE             };
                 _0x20234:
                 ; 0001 09DF         //LEDL=1;delay_ms(100);
                 ; 0001 09E0         //LEDL=0;delay_ms(100);
                 ; 0001 09E1         //for(i=0;i<id;i++)
                 ; 0001 09E2         //{
                 ; 0001 09E3         //    LEDR=1;delay_ms(150);
                 ; 0001 09E4         //    LEDR=0;delay_ms(150);
                 ; 0001 09E5         //}
                 ; 0001 09E6 }
000e2b 9119      	LD   R17,Y+
000e2c 9508      	RET
                 ;//========================================================
                 ;//========================================================
                 ;void testRCservo()
                 ; 0001 09EA {
                 _testRCservo:
                 ; 0001 09EB         clear();
000e2d 940e 03ce 	CALL _clear
                 ; 0001 09EC         hc(0,10);
000e2f 940e 1084 	CALL SUBOPT_0x7
000e31 940e 115c 	CALL SUBOPT_0x28
                 ; 0001 09ED         ws ("RC SERVO");
                +
000e33 e0e9     +LDI R30 , LOW ( _0x2029A + ( 0 ) )
000e34 e0f3     +LDI R31 , HIGH ( _0x2029A + ( 0 ) )
                 	__POINTW1MN _0x2029A,0
000e35 940e 10bf 	CALL SUBOPT_0xE
                 ; 0001 09EE // Timer/Counter 0 initialization
                 ; 0001 09EF // Clock source: System Clock
                 ; 0001 09F0 // Clock value: 7.813 kHz
                 ; 0001 09F1 // Mode: Phase correct PWM top=0xFF
                 ; 0001 09F2 // OC0 output: Non-Inverted PWM
                 ; 0001 09F3 TCCR0=0x65;     //15.32Hz
000e37 e6e5      	LDI  R30,LOW(101)
000e38 940e 1253 	CALL SUBOPT_0x53
                 ; 0001 09F4 TCNT0=0x00;
                 ; 0001 09F5 OCR0=0x00;
                 ; 0001 09F6 
                 ; 0001 09F7 // Timer/Counter 2 initialization
                 ; 0001 09F8 // Clock source: System Clock
                 ; 0001 09F9 // Clock value: 7.813 kHz
                 ; 0001 09FA // Mode: Phase correct PWM top=0xFF
                 ; 0001 09FB // OC2 output: Non-Inverted PWM
                 ; 0001 09FC ASSR=0x00;      //15.32Hz
                 ; 0001 09FD TCCR2=0x67;
000e3a e6e7      	LDI  R30,LOW(103)
000e3b bde5      	OUT  0x25,R30
                 ; 0001 09FE TCNT2=0x00;
000e3c e0e0      	LDI  R30,LOW(0)
000e3d bde4      	OUT  0x24,R30
                 ; 0001 09FF OCR2=0x00;
000e3e bde3      	OUT  0x23,R30
                 ; 0001 0A00 
                 ; 0001 0A01   while(keyKT!=0)
                 _0x2029B:
000e3f 9b98      	SBIS 0x13,0
000e40 c013      	RJMP _0x2029D
                 ; 0001 0A02    {
                 ; 0001 0A03    LEDL=1;LEDR=1;//PORTB.3=1;
000e41 9aac      	SBI  0x15,4
000e42 9aad      	SBI  0x15,5
                 ; 0001 0A04    OCR0=2; OCR2=2;
000e43 e0e2      	LDI  R30,LOW(2)
000e44 bfec      	OUT  0x3C,R30
000e45 bde3      	OUT  0x23,R30
                 ; 0001 0A05    delay_ms(2000);
000e46 ede0      	LDI  R30,LOW(2000)
000e47 e0f7      	LDI  R31,HIGH(2000)
000e48 940e 124f 	CALL SUBOPT_0x52
                 ; 0001 0A06 
                 ; 0001 0A07    LEDL=0;LEDR=0;//PORTB.3=1;
000e4a 98ac      	CBI  0x15,4
000e4b 98ad      	CBI  0x15,5
                 ; 0001 0A08    OCR0=10; OCR2=10;
000e4c e0ea      	LDI  R30,LOW(10)
000e4d bfec      	OUT  0x3C,R30
000e4e bde3      	OUT  0x23,R30
                 ; 0001 0A09    delay_ms(2000);
000e4f ede0      	LDI  R30,LOW(2000)
000e50 e0f7      	LDI  R31,HIGH(2000)
000e51 940e 124f 	CALL SUBOPT_0x52
                 ; 0001 0A0A    }
000e53 cfeb      	RJMP _0x2029B
                 _0x2029D:
                 ; 0001 0A0B // Timer/Counter 0 initialization
                 ; 0001 0A0C // Clock source: System Clock
                 ; 0001 0A0D // Clock value: Timer 0 Stopped
                 ; 0001 0A0E // Mode: Normal top=0xFF
                 ; 0001 0A0F // OC0 output: Disconnected
                 ; 0001 0A10 TCCR0=0x00;
000e54 e0e0      	LDI  R30,LOW(0)
000e55 940e 1253 	CALL SUBOPT_0x53
                 ; 0001 0A11 TCNT0=0x00;
                 ; 0001 0A12 OCR0=0x00;
                 ; 0001 0A13 
                 ; 0001 0A14 // Timer/Counter 2 initialization
                 ; 0001 0A15 // Clock source: System Clock
                 ; 0001 0A16 // Clock value: Timer2 Stopped
                 ; 0001 0A17 // Mode: Normal top=0xFF
                 ; 0001 0A18 // OC2 output: Disconnected
                 ; 0001 0A19 ASSR =0x00;
                 ; 0001 0A1A TCCR2=0x00;
000e57 e0e0      	LDI  R30,LOW(0)
000e58 bde5      	OUT  0x25,R30
                 ; 0001 0A1B TCNT2=0x00;
000e59 bde4      	OUT  0x24,R30
                 ; 0001 0A1C OCR2 =0x00;
000e5a bde3      	OUT  0x23,R30
                 ; 0001 0A1D 
                 ; 0001 0A1E }
000e5b 9508      	RET
                 
                 	.DSEG
                 _0x2029A:
000309           	.BYTE 0x9
                 ;
                 ;void selftest()
                 ; 0001 0A21 {
                 
                 	.CSEG
                 _selftest:
                 ; 0001 0A22     outlcd1();
000e5c 940e 1259 	CALL SUBOPT_0x54
                 ; 0001 0A23     hc(2,0);
000e5e 940e 1084 	CALL SUBOPT_0x7
000e60 940e 0387 	CALL _hc
                 ; 0001 0A24     ws ("1.ROBOT WALL");delay_ms(200);
                +
000e62 e1e2     +LDI R30 , LOW ( _0x202A6 + ( 0 ) )
000e63 e0f3     +LDI R31 , HIGH ( _0x202A6 + ( 0 ) )
                 	__POINTW1MN _0x202A6,0
000e64 940e 10bf 	CALL SUBOPT_0xE
000e66 940e 1150 	CALL SUBOPT_0x26
                 ; 0001 0A25      while(flagselftest==1)
                 _0x202A7:
000e68 91a0 0516 	LDS  R26,_flagselftest
000e6a 91b0 0517 	LDS  R27,_flagselftest+1
000e6c 9711      	SBIW R26,1
000e6d f011      	BREQ PC+3
000e6e 940c 0f43 	JMP _0x202A9
                 ; 0001 0A26      {
                 ; 0001 0A27         //------------------------------------------------------------------------
                 ; 0001 0A28         //test menu kiem tra  robot
                 ; 0001 0A29          chopledtheoid();
000e70 df4b      	RCALL _chopledtheoid
                 ; 0001 0A2A           if(keyKT==0)
000e71 9998      	SBIC 0x13,0
000e72 c092      	RJMP _0x202AA
                 ; 0001 0A2B             {
                 ; 0001 0A2C                 id++;
000e73 91e0 051a 	LDS  R30,_id
000e75 5fef      	SUBI R30,-LOW(1)
000e76 93e0 051a 	STS  _id,R30
                 ; 0001 0A2D                 if(id>11){id=1;}
000e78 91a0 051a 	LDS  R26,_id
000e7a 30ac      	CPI  R26,LOW(0xC)
000e7b f018      	BRLO _0x202AB
000e7c e0e1      	LDI  R30,LOW(1)
000e7d 93e0 051a 	STS  _id,R30
                 ; 0001 0A2E                 switch (id)
                 _0x202AB:
000e7f 940e 1248 	CALL SUBOPT_0x51
                 ; 0001 0A2F                 {
                 ; 0001 0A30 
                 ; 0001 0A31                 case 1:
000e81 f449      	BRNE _0x202AF
                 ; 0001 0A32                     outlcd1();
000e82 940e 1259 	CALL SUBOPT_0x54
                 ; 0001 0A33                     hc(2,0);
000e84 940e 1084 	CALL SUBOPT_0x7
000e86 940e 0387 	CALL _hc
                 ; 0001 0A34                     ws ("1.ROBOT WALL");delay_ms(200);
                +
000e88 e1ef     +LDI R30 , LOW ( _0x202A6 + ( 13 ) )
000e89 e0f3     +LDI R31 , HIGH ( _0x202A6 + ( 13 ) )
                 	__POINTW1MN _0x202A6,13
000e8a c074      	RJMP _0x202F0
                 ; 0001 0A35                 break;
                 ; 0001 0A36                 case 2:
                 _0x202AF:
000e8b 30e2      	CPI  R30,LOW(0x2)
000e8c e0a0      	LDI  R26,HIGH(0x2)
000e8d 07fa      	CPC  R31,R26
000e8e f449      	BRNE _0x202B0
                 ; 0001 0A37                     outlcd1();
000e8f 940e 1259 	CALL SUBOPT_0x54
                 ; 0001 0A38                     hc(2,0);
000e91 940e 1084 	CALL SUBOPT_0x7
000e93 940e 0387 	CALL _hc
                 ; 0001 0A39                     ws ("2.BLUETOOTH ");delay_ms(200);
                +
000e95 e2ec     +LDI R30 , LOW ( _0x202A6 + ( 26 ) )
000e96 e0f3     +LDI R31 , HIGH ( _0x202A6 + ( 26 ) )
                 	__POINTW1MN _0x202A6,26
000e97 c067      	RJMP _0x202F0
                 ; 0001 0A3A                 break;
                 ; 0001 0A3B                 case 3:
                 _0x202B0:
000e98 30e3      	CPI  R30,LOW(0x3)
000e99 e0a0      	LDI  R26,HIGH(0x3)
000e9a 07fa      	CPC  R31,R26
000e9b f449      	BRNE _0x202B1
                 ; 0001 0A3C                     outlcd1();
000e9c 940e 1259 	CALL SUBOPT_0x54
                 ; 0001 0A3D                     hc(2,0);
000e9e 940e 1084 	CALL SUBOPT_0x7
000ea0 940e 0387 	CALL _hc
                 ; 0001 0A3E                     ws ("3.WHITE LINE");delay_ms(200);
                +
000ea2 e3e9     +LDI R30 , LOW ( _0x202A6 + ( 39 ) )
000ea3 e0f3     +LDI R31 , HIGH ( _0x202A6 + ( 39 ) )
                 	__POINTW1MN _0x202A6,39
000ea4 c05a      	RJMP _0x202F0
                 ; 0001 0A3F                 break;
                 ; 0001 0A40                 case 4:
                 _0x202B1:
000ea5 30e4      	CPI  R30,LOW(0x4)
000ea6 e0a0      	LDI  R26,HIGH(0x4)
000ea7 07fa      	CPC  R31,R26
000ea8 f449      	BRNE _0x202B2
                 ; 0001 0A41                     outlcd1();
000ea9 940e 1259 	CALL SUBOPT_0x54
                 ; 0001 0A42                     hc(2,0);
000eab 940e 1084 	CALL SUBOPT_0x7
000ead 940e 0387 	CALL _hc
                 ; 0001 0A43                     ws ("4.BLACK LINE");delay_ms(200);
                +
000eaf e4e6     +LDI R30 , LOW ( _0x202A6 + ( 52 ) )
000eb0 e0f3     +LDI R31 , HIGH ( _0x202A6 + ( 52 ) )
                 	__POINTW1MN _0x202A6,52
000eb1 c04d      	RJMP _0x202F0
                 ; 0001 0A44                 break;
                 ; 0001 0A45                 case 5:
                 _0x202B2:
000eb2 30e5      	CPI  R30,LOW(0x5)
000eb3 e0a0      	LDI  R26,HIGH(0x5)
000eb4 07fa      	CPC  R31,R26
000eb5 f449      	BRNE _0x202B3
                 ; 0001 0A46                     outlcd1();
000eb6 940e 1259 	CALL SUBOPT_0x54
                 ; 0001 0A47                     hc(2,0);
000eb8 940e 1084 	CALL SUBOPT_0x7
000eba 940e 0387 	CALL _hc
                 ; 0001 0A48                     ws ("5.TEST MOTOR");delay_ms(200);
                +
000ebc e5e3     +LDI R30 , LOW ( _0x202A6 + ( 65 ) )
000ebd e0f3     +LDI R31 , HIGH ( _0x202A6 + ( 65 ) )
                 	__POINTW1MN _0x202A6,65
000ebe c040      	RJMP _0x202F0
                 ; 0001 0A49                 break;
                 ; 0001 0A4A                 case 6:
                 _0x202B3:
000ebf 30e6      	CPI  R30,LOW(0x6)
000ec0 e0a0      	LDI  R26,HIGH(0x6)
000ec1 07fa      	CPC  R31,R26
000ec2 f449      	BRNE _0x202B4
                 ; 0001 0A4B                     outlcd1();
000ec3 940e 1259 	CALL SUBOPT_0x54
                 ; 0001 0A4C                     hc(2,0);
000ec5 940e 1084 	CALL SUBOPT_0x7
000ec7 940e 0387 	CALL _hc
                 ; 0001 0A4D                     ws ("6.TEST IR   ");delay_ms(200);
                +
000ec9 e6e0     +LDI R30 , LOW ( _0x202A6 + ( 78 ) )
000eca e0f3     +LDI R31 , HIGH ( _0x202A6 + ( 78 ) )
                 	__POINTW1MN _0x202A6,78
000ecb c033      	RJMP _0x202F0
                 ; 0001 0A4E                 break;
                 ; 0001 0A4F                 case 7:
                 _0x202B4:
000ecc 30e7      	CPI  R30,LOW(0x7)
000ecd e0a0      	LDI  R26,HIGH(0x7)
000ece 07fa      	CPC  R31,R26
000ecf f449      	BRNE _0x202B5
                 ; 0001 0A50                     outlcd1();
000ed0 940e 1259 	CALL SUBOPT_0x54
                 ; 0001 0A51                     hc(2,0);
000ed2 940e 1084 	CALL SUBOPT_0x7
000ed4 940e 0387 	CALL _hc
                 ; 0001 0A52                     ws ("7.TEST RF   ");delay_ms(200);
                +
000ed6 e6ed     +LDI R30 , LOW ( _0x202A6 + ( 91 ) )
000ed7 e0f3     +LDI R31 , HIGH ( _0x202A6 + ( 91 ) )
                 	__POINTW1MN _0x202A6,91
000ed8 c026      	RJMP _0x202F0
                 ; 0001 0A53                 break;
                 ; 0001 0A54                 case 8:
                 _0x202B5:
000ed9 30e8      	CPI  R30,LOW(0x8)
000eda e0a0      	LDI  R26,HIGH(0x8)
000edb 07fa      	CPC  R31,R26
000edc f449      	BRNE _0x202B6
                 ; 0001 0A55                     outlcd1();
000edd 940e 1259 	CALL SUBOPT_0x54
                 ; 0001 0A56                     hc(2,0);
000edf 940e 1084 	CALL SUBOPT_0x7
000ee1 940e 0387 	CALL _hc
                 ; 0001 0A57                     ws ("8.TEST UART ");delay_ms(200);
                +
000ee3 e7ea     +LDI R30 , LOW ( _0x202A6 + ( 104 ) )
000ee4 e0f3     +LDI R31 , HIGH ( _0x202A6 + ( 104 ) )
                 	__POINTW1MN _0x202A6,104
000ee5 c019      	RJMP _0x202F0
                 ; 0001 0A58                 break;
                 ; 0001 0A59                 case 9:
                 _0x202B6:
000ee6 30e9      	CPI  R30,LOW(0x9)
000ee7 e0a0      	LDI  R26,HIGH(0x9)
000ee8 07fa      	CPC  R31,R26
000ee9 f449      	BRNE _0x202B7
                 ; 0001 0A5A                     outlcd1();
000eea 940e 1259 	CALL SUBOPT_0x54
                 ; 0001 0A5B                     hc(2,0);
000eec 940e 1084 	CALL SUBOPT_0x7
000eee 940e 0387 	CALL _hc
                 ; 0001 0A5C                     ws ("9.RC SERVO ");delay_ms(200);
                +
000ef0 e8e7     +LDI R30 , LOW ( _0x202A6 + ( 117 ) )
000ef1 e0f3     +LDI R31 , HIGH ( _0x202A6 + ( 117 ) )
                 	__POINTW1MN _0x202A6,117
000ef2 c00c      	RJMP _0x202F0
                 ; 0001 0A5D                 break;
                 ; 0001 0A5E                 case 10:
                 _0x202B7:
000ef3 30ea      	CPI  R30,LOW(0xA)
000ef4 e0a0      	LDI  R26,HIGH(0xA)
000ef5 07fa      	CPC  R31,R26
000ef6 f471      	BRNE _0x202AE
                 ; 0001 0A5F                     outlcd1();
000ef7 940e 1259 	CALL SUBOPT_0x54
                 ; 0001 0A60                     hc(2,0);
000ef9 940e 1084 	CALL SUBOPT_0x7
000efb 940e 0387 	CALL _hc
                 ; 0001 0A61                     ws ("10.UPDATE RB");delay_ms(200);
                +
000efd e9e3     +LDI R30 , LOW ( _0x202A6 + ( 129 ) )
000efe e0f3     +LDI R31 , HIGH ( _0x202A6 + ( 129 ) )
                 	__POINTW1MN _0x202A6,129
                 _0x202F0:
000eff 93fa      	ST   -Y,R31
000f00 93ea      	ST   -Y,R30
000f01 940e 03b0 	CALL _ws
000f03 940e 1150 	CALL SUBOPT_0x26
                 ; 0001 0A62                 break;
                 ; 0001 0A63                 };
                 _0x202AE:
                 ; 0001 0A64             }
                 ; 0001 0A65          if(keyKP==0)
                 _0x202AA:
000f05 9999      	SBIC 0x13,1
000f06 c03b      	RJMP _0x202B9
                 ; 0001 0A66             {
                 ; 0001 0A67                 switch (id)
000f07 940e 1248 	CALL SUBOPT_0x51
                 ; 0001 0A68                 {
                 ; 0001 0A69                 case 1:
000f09 f411      	BRNE _0x202BD
                 ; 0001 0A6A                     robotwall() ;
000f0a d8a0      	RCALL _robotwall
                 ; 0001 0A6B                 break;
000f0b c036      	RJMP _0x202BC
                 ; 0001 0A6C                 case 2:
                 _0x202BD:
000f0c 30e2      	CPI  R30,LOW(0x2)
000f0d e0a0      	LDI  R26,HIGH(0x2)
000f0e 07fa      	CPC  R31,R26
000f0f f411      	BRNE _0x202BE
                 ; 0001 0A6D                     bluetooth() ;
000f10 dd42      	RCALL _bluetooth
                 ; 0001 0A6E                 break;
000f11 c030      	RJMP _0x202BC
                 ; 0001 0A6F                 case 3:
                 _0x202BE:
000f12 30e3      	CPI  R30,LOW(0x3)
000f13 e0a0      	LDI  R26,HIGH(0x3)
000f14 07fa      	CPC  R31,R26
000f15 f411      	BRNE _0x202BF
                 ; 0001 0A70                     robotwhiteline() ;
000f16 d98a      	RCALL _robotwhiteline
                 ; 0001 0A71                 break;
000f17 c02a      	RJMP _0x202BC
                 ; 0001 0A72                 case 4:
                 _0x202BF:
000f18 30e4      	CPI  R30,LOW(0x4)
000f19 e0a0      	LDI  R26,HIGH(0x4)
000f1a 07fa      	CPC  R31,R26
000f1b f411      	BRNE _0x202C0
                 ; 0001 0A73                     robotblackline() ;
000f1c da7b      	RCALL _robotblackline
                 ; 0001 0A74                 break;
000f1d c024      	RJMP _0x202BC
                 ; 0001 0A75                 case 5:
                 _0x202C0:
000f1e 30e5      	CPI  R30,LOW(0x5)
000f1f e0a0      	LDI  R26,HIGH(0x5)
000f20 07fa      	CPC  R31,R26
000f21 f411      	BRNE _0x202C1
                 ; 0001 0A76                     testmotor() ;
000f22 dd83      	RCALL _testmotor
                 ; 0001 0A77                 break;
000f23 c01e      	RJMP _0x202BC
                 ; 0001 0A78                 case 6:
                 _0x202C1:
000f24 30e6      	CPI  R30,LOW(0x6)
000f25 e0a0      	LDI  R26,HIGH(0x6)
000f26 07fa      	CPC  R31,R26
000f27 f411      	BRNE _0x202C2
                 ; 0001 0A79                     testir()    ;
000f28 ddcd      	RCALL _testir
                 ; 0001 0A7A                 break;
000f29 c018      	RJMP _0x202BC
                 ; 0001 0A7B                 case 7:
                 _0x202C2:
000f2a 30e7      	CPI  R30,LOW(0x7)
000f2b e0a0      	LDI  R26,HIGH(0x7)
000f2c 07fa      	CPC  R31,R26
000f2d f411      	BRNE _0x202C3
                 ; 0001 0A7C                     testrf()    ;
000f2e ddc6      	RCALL _testrf
                 ; 0001 0A7D                 break;
000f2f c012      	RJMP _0x202BC
                 ; 0001 0A7E                 case 8:
                 _0x202C3:
000f30 30e8      	CPI  R30,LOW(0x8)
000f31 e0a0      	LDI  R26,HIGH(0x8)
000f32 07fa      	CPC  R31,R26
000f33 f411      	BRNE _0x202C4
                 ; 0001 0A7F                     testuart()  ;
000f34 ddae      	RCALL _testuart
                 ; 0001 0A80                 break;
000f35 c00c      	RJMP _0x202BC
                 ; 0001 0A81                 case 9:
                 _0x202C4:
000f36 30e9      	CPI  R30,LOW(0x9)
000f37 e0a0      	LDI  R26,HIGH(0x9)
000f38 07fa      	CPC  R31,R26
000f39 f411      	BRNE _0x202C5
                 ; 0001 0A82                     testRCservo()  ;
000f3a def2      	RCALL _testRCservo
                 ; 0001 0A83                 break;
000f3b c006      	RJMP _0x202BC
                 ; 0001 0A84                 case 10:
                 _0x202C5:
000f3c 30ea      	CPI  R30,LOW(0xA)
000f3d e0a0      	LDI  R26,HIGH(0xA)
000f3e 07fa      	CPC  R31,R26
000f3f f411      	BRNE _0x202BC
                 ; 0001 0A85                     testposition() ;
000f40 940e 06db 	CALL _testposition
                 ; 0001 0A86                 break;
                 ; 0001 0A87 
                 ; 0001 0A88                 };
                 _0x202BC:
                 ; 0001 0A89 
                 ; 0001 0A8A             }
                 ; 0001 0A8B 
                 ; 0001 0A8C 
                 ; 0001 0A8D      }//end while(1)
                 _0x202B9:
000f42 cf25      	RJMP _0x202A7
                 _0x202A9:
                 ; 0001 0A8E }
000f43 9508      	RET
                 
                 	.DSEG
                 _0x202A6:
000312           	.BYTE 0x8E
                 ;//========================================================
                 ;//          HAM MAIN
                 ;//========================================================
                 ;void main(void)
                 ; 0001 0A93 {
                 
                 	.CSEG
                 _main:
                 ; 0001 0A94   //  unsigned char flagreadrb;
                 ; 0001 0A95     unsigned int adctest;
                 ; 0001 0A96     unsigned char i;
                 ; 0001 0A97     float pidl,pidr,pl,il,pr,ir,ur,ul;
                 ; 0001 0A98 
                 ; 0001 0A99     //------------- khai  bao chuc nang in out cua cac port
                 ; 0001 0A9A     DDRA    = 0xFF;
000f44 97a0      	SBIW R28,32
                 ;	adctest -> R16,R17
                 ;	i -> R19
                 ;	pidl -> Y+28
                 ;	pidr -> Y+24
                 ;	pl -> Y+20
                 ;	il -> Y+16
                 ;	pr -> Y+12
                 ;	ir -> Y+8
                 ;	ur -> Y+4
                 ;	ul -> Y+0
000f45 efef      	LDI  R30,LOW(255)
000f46 bbea      	OUT  0x1A,R30
                 ; 0001 0A9B     DDRB    = 0b10111111;
000f47 ebef      	LDI  R30,LOW(191)
000f48 bbe7      	OUT  0x17,R30
                 ; 0001 0A9C     DDRC    = 0b11111100;
000f49 efec      	LDI  R30,LOW(252)
000f4a bbe4      	OUT  0x14,R30
                 ; 0001 0A9D     DDRD    = 0b11110010;
000f4b efe2      	LDI  R30,LOW(242)
000f4c bbe1      	OUT  0x11,R30
                 ; 0001 0A9E 
                 ; 0001 0A9F     //------------- khai  bao chuc nang cua adc
                 ; 0001 0AA0     // ADC initialization
                 ; 0001 0AA1     // ADC Clock frequency: 1000.000 kHz
                 ; 0001 0AA2     // ADC Voltage Reference: AVCC pin
                 ; 0001 0AA3     ADMUX=ADC_VREF_TYPE & 0xff;
000f4d e4e0      	LDI  R30,LOW(64)
000f4e b9e7      	OUT  0x7,R30
                 ; 0001 0AA4     ADCSRA=0x83;
000f4f e8e3      	LDI  R30,LOW(131)
000f50 b9e6      	OUT  0x6,R30
                 ; 0001 0AA5     //---------------------------------------------------------------------
                 ; 0001 0AA6     //------------- khai  bao chuc nang cua bo timer dung lam PWM cho 2 dong co
                 ; 0001 0AA7     // Timer/Counter 1 initialization
                 ; 0001 0AA8     // Clock source: System Clock
                 ; 0001 0AA9     // Clock value: 1000.000 kHz   //PWM 2KHz
                 ; 0001 0AAA     // Mode: Ph. correct PWM top=0x00FF
                 ; 0001 0AAB     // OC1A output: Non-Inv.
                 ; 0001 0AAC     // OC1B output: Non-Inv.
                 ; 0001 0AAD     // Noise Canceler: Off
                 ; 0001 0AAE     // Input Capture on Falling Edge
                 ; 0001 0AAF     // Timer1 Overflow Interrupt: On  // voi period =1/2khz= 0.5ms
                 ; 0001 0AB0     // Input Capture Interrupt: Off
                 ; 0001 0AB1     // Compare A Match Interrupt: Off
                 ; 0001 0AB2     // Compare B Match Interrupt: Off
                 ; 0001 0AB3     TCCR1A=0xA1;
000f51 eae1      	LDI  R30,LOW(161)
000f52 bdef      	OUT  0x2F,R30
                 ; 0001 0AB4     TCCR1B=0x02;
000f53 e0e2      	LDI  R30,LOW(2)
000f54 bdee      	OUT  0x2E,R30
                 ; 0001 0AB5     TCNT1H=0x00;
000f55 e0e0      	LDI  R30,LOW(0)
000f56 bded      	OUT  0x2D,R30
                 ; 0001 0AB6     TCNT1L=0x00;
000f57 bdec      	OUT  0x2C,R30
                 ; 0001 0AB7     ICR1H=0x00;
000f58 bde7      	OUT  0x27,R30
                 ; 0001 0AB8     ICR1L=0x00;
000f59 bde6      	OUT  0x26,R30
                 ; 0001 0AB9     OCR1AH=0x00;
000f5a bdeb      	OUT  0x2B,R30
                 ; 0001 0ABA     OCR1AL=0x00;
000f5b bdea      	OUT  0x2A,R30
                 ; 0001 0ABB     OCR1BH=0x00;
000f5c bde9      	OUT  0x29,R30
                 ; 0001 0ABC     OCR1BL=0x00;
000f5d bde8      	OUT  0x28,R30
                 ; 0001 0ABD     // Timer(s)/Counter(s) Interrupt(s) initialization  timer0
                 ; 0001 0ABE     TIMSK=0x04;
000f5e e0e4      	LDI  R30,LOW(4)
000f5f bfe9      	OUT  0x39,R30
                 ; 0001 0ABF 
                 ; 0001 0AC0     //OCR1A=0-255; MOTOR LEFT
                 ; 0001 0AC1     //OCR1B=0-255; MOTOR RIGHT
                 ; 0001 0AC2     for(i=0;i<1;i++)
000f60 e030      	LDI  R19,LOW(0)
                 _0x202C8:
000f61 3031      	CPI  R19,1
000f62 f420      	BRSH _0x202C9
                 ; 0001 0AC3     {
                 ; 0001 0AC4         LEDL=1; LEDR=1;
000f63 940e 1218 	CALL SUBOPT_0x4A
                 ; 0001 0AC5         delay_ms(100);
                 ; 0001 0AC6         LEDL=0; LEDR=0;
                 ; 0001 0AC7         delay_ms(100);
                 ; 0001 0AC8     }
000f65 5f3f      	SUBI R19,-1
000f66 cffa      	RJMP _0x202C8
                 _0x202C9:
                 ; 0001 0AC9 
                 ; 0001 0ACA     //khai  bao su dung cua glcd
                 ; 0001 0ACB     SPIinit();
000f67 940e 043e 	CALL _SPIinit
                 ; 0001 0ACC     LCDinit();
000f69 940e 0443 	CALL _LCDinit
                 ; 0001 0ACD 
                 ; 0001 0ACE     // khai  bao su dung rf dung de cap nhat gia tri vi tri cua robot
                 ; 0001 0ACF     init_NRF24L01();
000f6b 940e 02af 	CALL _init_NRF24L01
                 ; 0001 0AD0     SetRX_Mode();  // chon kenh tan so phat, va dia chi phat trong file nRF14l01.c
000f6d 940e 033f 	CALL _SetRX_Mode
                 ; 0001 0AD1     // khai bao su dung encoder
                 ; 0001 0AD2     initencoder(); //lay 2 canh len  xuong
000f6f 940e 0506 	CALL _initencoder
                 ; 0001 0AD3     // khai bao su dung uart
                 ; 0001 0AD4     inituart();
000f71 940e 04e6 	CALL _inituart
                 ; 0001 0AD5     #asm("sei")
000f73 9478      	sei
                 ; 0001 0AD6 
                 ; 0001 0AD7     //man hinh khoi dong robokit
                 ; 0001 0AD8     hc(0,10);
000f74 940e 1084 	CALL SUBOPT_0x7
000f76 940e 115c 	CALL SUBOPT_0x28
                 ; 0001 0AD9     ws("<AKBOTKIT>");
                +
000f78 eae0     +LDI R30 , LOW ( _0x202D2 + ( 0 ) )
000f79 e0f3     +LDI R31 , HIGH ( _0x202D2 + ( 0 ) )
                 	__POINTW1MN _0x202D2,0
000f7a 940e 10bf 	CALL SUBOPT_0xE
                 ; 0001 0ADA     hc(1,0);
000f7c 940e 114b 	CALL SUBOPT_0x25
000f7e 940e 1084 	CALL SUBOPT_0x7
000f80 940e 0387 	CALL _hc
                 ; 0001 0ADB     ws("************");
                +
000f82 eaeb     +LDI R30 , LOW ( _0x202D2 + ( 11 ) )
000f83 e0f3     +LDI R31 , HIGH ( _0x202D2 + ( 11 ) )
                 	__POINTW1MN _0x202D2,11
000f84 940e 10bf 	CALL SUBOPT_0xE
                 ; 0001 0ADC 
                 ; 0001 0ADD     //robotwhiteline();
                 ; 0001 0ADE     //robotblackline();
                 ; 0001 0ADF     //kiem tra neu nhan va giu nut trai se vao chuong trinh selftest (kiem tra hoat dong cua robot)
                 ; 0001 0AE0     while (keyKT==0)
                 _0x202D3:
000f86 9998      	SBIC 0x13,0
000f87 c01d      	RJMP _0x202D5
                 ; 0001 0AE1     {
                 ; 0001 0AE2       cntselftest++;
000f88 e1a8      	LDI  R26,LOW(_cntselftest)
000f89 e0b5      	LDI  R27,HIGH(_cntselftest)
000f8a 940e 10e5 	CALL SUBOPT_0x14
                 ; 0001 0AE3       if(cntselftest>10)
000f8c 91a0 0518 	LDS  R26,_cntselftest
000f8e 91b0 0519 	LDS  R27,_cntselftest+1
000f90 971b      	SBIW R26,11
000f91 f070      	BRLO _0x202D6
                 ; 0001 0AE4       {
                 ; 0001 0AE5            while (keyKT==0);//CHO NHA NUT AN
                 _0x202D7:
000f92 9b98      	SBIS 0x13,0
000f93 cffe      	RJMP _0x202D7
                 ; 0001 0AE6            cntselftest=0;
000f94 e0e0      	LDI  R30,LOW(0)
000f95 93e0 0518 	STS  _cntselftest,R30
000f97 93e0 0519 	STS  _cntselftest+1,R30
                 ; 0001 0AE7            flagselftest=1;
000f99 e0e1      	LDI  R30,LOW(1)
000f9a e0f0      	LDI  R31,HIGH(1)
000f9b 93e0 0516 	STS  _flagselftest,R30
000f9d 93f0 0517 	STS  _flagselftest+1,R31
                 ; 0001 0AE8            selftest();
000f9f debc      	RCALL _selftest
                 ; 0001 0AE9       }
                 ; 0001 0AEA       delay_ms(100);
                 _0x202D6:
000fa0 e6e4      	LDI  R30,LOW(100)
000fa1 e0f0      	LDI  R31,HIGH(100)
000fa2 940e 124f 	CALL SUBOPT_0x52
                 ; 0001 0AEB     }
000fa4 cfe1      	RJMP _0x202D3
                 _0x202D5:
                 ; 0001 0AEC     hc(2,0);
000fa5 940e 1146 	CALL SUBOPT_0x24
000fa7 940e 1084 	CALL SUBOPT_0x7
000fa9 940e 0387 	CALL _hc
                 ; 0001 0AED      ws("Dinh Mahone");
                +
000fab ebe8     +LDI R30 , LOW ( _0x202D2 + ( 24 ) )
000fac e0f3     +LDI R31 , HIGH ( _0x202D2 + ( 24 ) )
                 	__POINTW1MN _0x202D2,24
000fad 940e 10bf 	CALL SUBOPT_0xE
                 ; 0001 0AEE //
                 ; 0001 0AEF //    // vao chuong trinh chinh sau khi bo qua phan selftest
                 ; 0001 0AF0 //    hc(2,0);
                 ; 0001 0AF1 //    ws("MAIN PROGRAM");
                 ; 0001 0AF2 //    settoadoHomRB();
                 ; 0001 0AF3 //    // code you here
                 ; 0001 0AF4 //    while (1)
                 ; 0001 0AF5 //    {
                 ; 0001 0AF6 //     //LEDR=!LEDR;
                 ; 0001 0AF7 //     //PHUC
                 ; 0001 0AF8 //////     //=========================================================   PHUC ID
                 ; 0001 0AF9 ////         chay theo banh co dinh huong tan cong
                 ; 0001 0AFA //        readposition();
                 ; 0001 0AFB //        calcvitri(0,0);    // de xac dinh huong tan cong
                 ; 0001 0AFC //
                 ; 0001 0AFD //        //flagtancong=1;
                 ; 0001 0AFE ////        if(flagtancong==1)
                 ; 0001 0AFF ////        {
                 ; 0001 0B00 ////            flagtask=2;
                 ; 0001 0B01 ////            rb_wait(50);
                 ; 0001 0B02 ////
                 ; 0001 0B03 ////        }else
                 ; 0001 0B04 ////        {
                 ; 0001 0B05 ////            if(offsetphongthu<0)    offsetphongthu=-offsetphongthu;//lay do lon
                 ; 0001 0B06 ////            if(robotctrl.ball.y <= 0)
                 ; 0001 0B07 ////            {
                 ; 0001 0B08 ////                setRobotX = robotctrl.ball.x;
                 ; 0001 0B09 ////                setRobotY = robotctrl.ball.y + offsetphongthu;
                 ; 0001 0B0A ////
                 ; 0001 0B0B ////                flagtask=0;
                 ; 0001 0B0C ////                rb_wait(200);
                 ; 0001 0B0D ////
                 ; 0001 0B0E ////            }else
                 ; 0001 0B0F ////            {
                 ; 0001 0B10 ////                setRobotX = robotctrl.ball.x;
                 ; 0001 0B11 ////                setRobotY = robotctrl.ball.y - offsetphongthu;
                 ; 0001 0B12 ////
                 ; 0001 0B13 ////                flagtask=0;
                 ; 0001 0B14 ////                rb_wait(200);
                 ; 0001 0B15 ////
                 ; 0001 0B16 ////            }
                 ; 0001 0B17 ////
                 ; 0001 0B18 ////             setRobotX = robotctrl.ball.x+offsetphongthu;
                 ; 0001 0B19 ////             setRobotY = robotctrl.ball.y;
                 ; 0001 0B1A ////             rb_wait(200);
                 ; 0001 0B1B ////             rb_goball();
                 ; 0001 0B1C ////             rb_wait(200);
                 ; 0001 0B1D ////
                 ; 0001 0B1E ////
                 ; 0001 0B1F ////        }
                 ; 0001 0B20 //        ctrrobot();// can phai luon luon chay de dieu khien robot
                 ; 0001 0B21 //////        hc(5,40);wn16s(orentation);
                 ; 0001 0B22 //////        hc(4,40);wn16s(flagtancong);
                 ; 0001 0B23 ////     //=========================================================   PHUC ID
                 ; 0001 0B24 ////    //XEP HANG THEO TOA DO CHO TRUOC
                 ; 0001 0B25 ////        ctrrobot();// can phai luon luon chay de dieu khien robot
                 ; 0001 0B26 ////       //rb_move(245,3.3);  //4
                 ; 0001 0B27 ////        rb_move(114,91);  //6
                 ; 0001 0B28 ////       // rb_move(122.6,-80.4);  //5
                 ; 0001 0B29 ////       //rb_move(-102,-58.5);  //3
                 ; 0001 0B2A ////       // rb_move(-112,108.5);  //2
                 ; 0001 0B2B ////       // rb_move(-181,16);  //1
                 ; 0001 0B2C ////       rb_wait(500000);
                 ; 0001 0B2D ////       rb_rotate(180);
                 ; 0001 0B2E ////       rb_wait(500000);
                 ; 0001 0B2F ////       while(1);
                 ; 0001 0B30 //
                 ; 0001 0B31 ////    //==========================================================
                 ; 0001 0B32 ////    //=========================================================
                 ; 0001 0B33 ////    //CHAY THEO BONG
                 ; 0001 0B34 ////       ctrrobot();// can phai luon luon chay de dieu khien robot
                 ; 0001 0B35 ////       rb_goball();
                 ; 0001 0B36 //    //==========================================================
                 ; 0001 0B37 //
                 ; 0001 0B38 ////      rb_wait(50000);
                 ; 0001 0B39 ////      rb_rotate(0);
                 ; 0001 0B3A ////      rb_wait(50000);
                 ; 0001 0B3B ////      rb_kick();
                 ; 0001 0B3C ////      rb_wait(50000);
                 ; 0001 0B3D ////    ==========================================================
                 ; 0001 0B3E ////     KIEM TRA HUONG
                 ; 0001 0B3F ////    readposition();
                 ; 0001 0B40 ////    calcvitri(0,0);
                 ; 0001 0B41 ////    hc(3,0);wn16s(cmdCtrlRobot);
                 ; 0001 0B42 ////    hc(5,40);wn16s(orentation);
                 ; 0001 0B43 ////    hc(4,40);wn16s(flagtancong);
                 ; 0001 0B44 ////    ctrrobot();// can phai luon luon chay de dieu khien robot
                 ; 0001 0B45 //     } //end while(1)
                 ; 0001 0B46 }
000faf 96a0      	ADIW R28,32
                 _0x202DA:
000fb0 cfff      	RJMP _0x202DA
                 
                 	.DSEG
                 _0x202D2:
0003a0           	.BYTE 0x24
                 ;
                 ;
                 ;
                 
                 	.CSEG
                 	#ifndef __SLEEP_DEFINED__
                 	#endif
                 
                 	.CSEG
                 _spi:
000fb1 81e8      	LD   R30,Y
000fb2 b9ef      	OUT  0xF,R30
                 _0x2020003:
000fb3 9b77      	SBIS 0xE,7
000fb4 cffe      	RJMP _0x2020003
000fb5 b1ef      	IN   R30,0xF
000fb6 9621      	ADIW R28,1
000fb7 9508      	RET
                 	#ifndef __SLEEP_DEFINED__
                 	#endif
                 
                 	.CSEG
                 
                 	.CSEG
                 _ftrunc:
000fb8 817b         ldd  r23,y+3
000fb9 816a         ldd  r22,y+2
000fba 81f9         ldd  r31,y+1
000fbb 81e8         ld   r30,y
000fbc fb77         bst  r23,7
000fbd 0f77         lsl  r23
000fbe fd67         sbrc r22,7
000fbf 6071         sbr  r23,1
000fc0 2f97         mov  r25,r23
000fc1 579e         subi r25,0x7e
000fc2 f081         breq __ftrunc0
000fc3 f078         brcs __ftrunc0
000fc4 3198         cpi  r25,24
000fc5 f490         brsh __ftrunc1
000fc6 27aa         clr  r26
000fc7 27bb         clr  r27
000fc8 2788         clr  r24
                 __ftrunc2:
000fc9 9408         sec
000fca 9587         ror  r24
000fcb 95b7         ror  r27
000fcc 95a7         ror  r26
000fcd 959a         dec  r25
000fce f7d1         brne __ftrunc2
000fcf 23ea         and  r30,r26
000fd0 23fb         and  r31,r27
000fd1 2368         and  r22,r24
000fd2 c005         rjmp __ftrunc1
                 __ftrunc0:
000fd3 94e8         clt
000fd4 2777         clr  r23
000fd5 27ee         clr  r30
000fd6 27ff         clr  r31
000fd7 2766         clr  r22
                 __ftrunc1:
000fd8 776f         cbr  r22,0x80
000fd9 9576         lsr  r23
000fda f408         brcc __ftrunc3
000fdb 6860         sbr  r22,0x80
                 __ftrunc3:
000fdc f977         bld  r23,7
000fdd 91a9         ld   r26,y+
000fde 91b9         ld   r27,y+
000fdf 9189         ld   r24,y+
000fe0 9199         ld   r25,y+
000fe1 17ea         cp   r30,r26
000fe2 07fb         cpc  r31,r27
000fe3 0768         cpc  r22,r24
000fe4 0779         cpc  r23,r25
000fe5 fb97         bst  r25,7
000fe6 9508         ret
                 _floor:
000fe7 940e 125c 	CALL SUBOPT_0x55
000fe9 940e 125f 	CALL SUBOPT_0x56
000feb f419          brne __floor1
                 __floor0:
000fec 940e 125c 	CALL SUBOPT_0x55
000fee c013      	RJMP _0x20C0002
                 __floor1:
000fef f7e6          brtc __floor0
000ff0 940e 1266 	CALL SUBOPT_0x57
000ff2 940e 1311 	CALL __SUBF12
000ff4 c00d      	RJMP _0x20C0002
                 _ceil:
000ff5 940e 125c 	CALL SUBOPT_0x55
000ff7 940e 125f 	CALL SUBOPT_0x56
000ff9 f419          brne __ceil1
                 __ceil0:
000ffa 940e 125c 	CALL SUBOPT_0x55
000ffc c005      	RJMP _0x20C0002
                 __ceil1:
000ffd f3e6          brts __ceil0
000ffe 940e 1266 	CALL SUBOPT_0x57
001000 940e 1318 	CALL __ADDF12
                 _0x20C0002:
001002 9624      	ADIW R28,4
001003 9508      	RET
                 _fmod:
001004 9724      	SBIW R28,4
                +
001005 81ec     +LDD R30 , Y + 4
001006 81fd     +LDD R31 , Y + 4 + 1
001007 816e     +LDD R22 , Y + 4 + 2
001008 817f     +LDD R23 , Y + 4 + 3
                 	__GETD1S 4
001009 940e 1508 	CALL __CPD10
00100b f429      	BRNE _0x2060005
                +
00100c e0e0     +LDI R30 , LOW ( 0x0 )
00100d e0f0     +LDI R31 , HIGH ( 0x0 )
00100e e060     +LDI R22 , BYTE3 ( 0x0 )
00100f e070     +LDI R23 , BYTE4 ( 0x0 )
                 	__GETD1N 0x0
001010 c034      	RJMP _0x20C0001
                 _0x2060005:
                +
001011 81ec     +LDD R30 , Y + 4
001012 81fd     +LDD R31 , Y + 4 + 1
001013 816e     +LDD R22 , Y + 4 + 2
001014 817f     +LDD R23 , Y + 4 + 3
                 	__GETD1S 4
001015 940e 11f4 	CALL SUBOPT_0x43
001017 940e 13b6 	CALL __DIVF21
001019 940e 14e7 	CALL __PUTD1S0
00101b 940e 125c 	CALL SUBOPT_0x55
00101d 940e 1508 	CALL __CPD10
00101f f429      	BRNE _0x2060006
                +
001020 e0e0     +LDI R30 , LOW ( 0x0 )
001021 e0f0     +LDI R31 , HIGH ( 0x0 )
001022 e060     +LDI R22 , BYTE3 ( 0x0 )
001023 e070     +LDI R23 , BYTE4 ( 0x0 )
                 	__GETD1N 0x0
001024 c020      	RJMP _0x20C0001
                 _0x2060006:
001025 940e 14e2 	CALL __GETD2S0
001027 940e 150c 	CALL __CPD02
001029 f434      	BRGE _0x2060007
00102a 940e 125c 	CALL SUBOPT_0x55
00102c 940e 14ec 	CALL __PUTPARD1
00102e dfb8      	RCALL _floor
00102f c005      	RJMP _0x2060033
                 _0x2060007:
001030 940e 125c 	CALL SUBOPT_0x55
001032 940e 14ec 	CALL __PUTPARD1
001034 dfc0      	RCALL _ceil
                 _0x2060033:
001035 940e 14e7 	CALL __PUTD1S0
001037 940e 125c 	CALL SUBOPT_0x55
                +
001039 81ac     +LDD R26 , Y + 4
00103a 81bd     +LDD R27 , Y + 4 + 1
00103b 818e     +LDD R24 , Y + 4 + 2
00103c 819f     +LDD R25 , Y + 4 + 3
                 	__GETD2S 4
00103d 940e 1368 	CALL __MULF12
00103f 940e 11f4 	CALL SUBOPT_0x43
001041 940e 14f1 	CALL __SWAPD12
001043 940e 1311 	CALL __SUBF12
                 _0x20C0001:
001045 962c      	ADIW R28,12
001046 9508      	RET
                 
                 	.CSEG
                 
                 	.CSEG
                 
                 	.DSEG
                 
                 	.CSEG
                 
                 	.DSEG
                 _TX_ADDRESS:
0003c4           	.BYTE 0x5
                 _RX_ADDRESS:
0003c9           	.BYTE 0x5
                 _rb:
0003ce           	.BYTE 0x1C
                 _robot11:
0003ea           	.BYTE 0x1C
                 _robot12:
000406           	.BYTE 0x1C
                 _robot13:
000422           	.BYTE 0x1C
                 _robot21:
00043e           	.BYTE 0x1C
                 _robot22:
00045a           	.BYTE 0x1C
                 _robot23:
000476           	.BYTE 0x1C
                 _robotctrl:
000492           	.BYTE 0x1C
                 _errangle:
0004ae           	.BYTE 0x4
                 _distance:
0004b2           	.BYTE 0x4
                 _orentation:
0004b6           	.BYTE 0x4
                 _RxBuf:
0004ba           	.BYTE 0x20
                 _setRobotX:
0004da           	.BYTE 0x4
                 _setRobotY:
0004de           	.BYTE 0x4
                 _setRobotXmin:
0004e2           	.BYTE 0x4
                 _setRobotXmax:
0004e6           	.BYTE 0x4
                 _setRobotAngleX:
0004ea           	.BYTE 0x4
                 _setRobotAngleY:
0004ee           	.BYTE 0x4
                 _offestsanco:
0004f2           	.BYTE 0x4
                 _rbctrlHomeX:
0004f6           	.BYTE 0x4
                 _rbctrlHomeY:
0004fa           	.BYTE 0x4
                 _rbctrlPenaltyX:
0004fe           	.BYTE 0x4
                 _rbctrlPenaltyY:
000502           	.BYTE 0x4
                 _rbctrlPenaltyAngle:
000506           	.BYTE 0x4
                 _rbctrlHomeAngle:
00050a           	.BYTE 0x4
                 _cntsethomeRB:
00050e           	.BYTE 0x2
                 _cntstuckRB:
000510           	.BYTE 0x2
                 _cntunlookRB:
000512           	.BYTE 0x2
                 _flagsethome:
000514           	.BYTE 0x2
                 _flagselftest:
000516           	.BYTE 0x2
                 _cntselftest:
000518           	.BYTE 0x2
                 _id:
00051a           	.BYTE 0x1
                 _IRFL:
00051b           	.BYTE 0x2
                 _IRFR:
00051d           	.BYTE 0x2
                 _IRLINE:
00051f           	.BYTE 0xA
                 _timerstick:
000529           	.BYTE 0x2
                 _timerstickdis:
00052b           	.BYTE 0x2
                 _timerstickang:
00052d           	.BYTE 0x2
                 _timerstickctr:
00052f           	.BYTE 0x2
                 _vQEL:
000531           	.BYTE 0x2
                 _vQER:
000533           	.BYTE 0x2
                 _oldQEL:
000535           	.BYTE 0x2
                 _oldQER:
000537           	.BYTE 0x2
                 _svQEL:
000539           	.BYTE 0x2
                 _svQER:
00053b           	.BYTE 0x2
                 _seRki_G001:
00053d           	.BYTE 0x2
                 _seLki_G001:
00053f           	.BYTE 0x2
                 _uL:
000541           	.BYTE 0x2
                 _uR:
000543           	.BYTE 0x2
                 _KpR:
000545           	.BYTE 0x2
                 _KiR:
000547           	.BYTE 0x2
                 _KpL:
000549           	.BYTE 0x2
                 _KiL:
00054b           	.BYTE 0x2
                 _sd:
00054d           	.BYTE 0x2
                 _oldd:
00054f           	.BYTE 0x2
                 _flagwaitctrRobot:
000551           	.BYTE 0x1
                 _sa:
000552           	.BYTE 0x2
                 _olda:
000554           	.BYTE 0x2
                 _flagwaitctrAngle:
000556           	.BYTE 0x1
                 _flagtask:
000557           	.BYTE 0x2
                 _flagtaskold:
000559           	.BYTE 0x2
                 _flaghuongtrue:
00055b           	.BYTE 0x2
                 _verranglekisum:
00055d           	.BYTE 0x2
                 _QEL:
00055f           	.BYTE 0x2
                 _QER:
000561           	.BYTE 0x2
                 _rx_buffer:
000563           	.BYTE 0x8
                 _rx_wr_index:
00056b           	.BYTE 0x1
                 _rx_rd_index:
00056c           	.BYTE 0x1
                 _rx_counter:
00056d           	.BYTE 0x1
                 _tx_buffer:
00056e           	.BYTE 0x8
                 _tx_wr_index:
000576           	.BYTE 0x1
                 _tx_rd_index:
000577           	.BYTE 0x1
                 _tx_counter:
000578           	.BYTE 0x1
                 __seed_G105:
000579           	.BYTE 0x4
                 
                 	.CSEG
                 ;OPTIMIZER ADDED SUBROUTINE, CALLED 2 TIMES, CODE SIZE REDUCTION:3 WORDS
                 SUBOPT_0x0:
001047 93fa      	ST   -Y,R31
001048 93ea      	ST   -Y,R30
001049 e0e5      	LDI  R30,LOW(5)
00104a e0f0      	LDI  R31,HIGH(5)
00104b 93fa      	ST   -Y,R31
00104c 93ea      	ST   -Y,R30
00104d 940c 0322 	JMP  _SPI_Write_Buf
                 
                 ;OPTIMIZER ADDED SUBROUTINE, CALLED 4 TIMES, CODE SIZE REDUCTION:3 WORDS
                 SUBOPT_0x1:
00104f 93ea      	ST   -Y,R30
001050 940e 02e4 	CALL _SPI_RW
001052 2f1e      	MOV  R17,R30
001053 9508      	RET
                 
                 ;OPTIMIZER ADDED SUBROUTINE, CALLED 6 TIMES, CODE SIZE REDUCTION:12 WORDS
                 SUBOPT_0x2:
001054 93ea      	ST   -Y,R30
001055 940e 037a 	CALL _LcdWrite
001057 e0e0      	LDI  R30,LOW(0)
001058 93ea      	ST   -Y,R30
001059 9508      	RET
                 
                 ;OPTIMIZER ADDED SUBROUTINE, CALLED 2 TIMES, CODE SIZE REDUCTION:7 WORDS
                 SUBOPT_0x3:
00105a 931a      	ST   -Y,R17
00105b 930a      	ST   -Y,R16
                +
00105c e000     +LDI R16 , LOW ( 0 )
00105d e010     +LDI R17 , HIGH ( 0 )
                 	__GETWRN 16,17,0
00105e e0e1      	LDI  R30,LOW(1)
00105f 93ea      	ST   -Y,R30
001060 e0e0      	LDI  R30,LOW(0)
001061 93ea      	ST   -Y,R30
001062 940e 037a 	CALL _LcdWrite
                +
001064 e000     +LDI R16 , LOW ( 0 )
001065 e010     +LDI R17 , HIGH ( 0 )
                 	__GETWRN 16,17,0
001066 9508      	RET
                 
                 ;OPTIMIZER ADDED SUBROUTINE, CALLED 2 TIMES, CODE SIZE REDUCTION:14 WORDS
                 SUBOPT_0x4:
001067 e0e1      	LDI  R30,LOW(1)
001068 93ea      	ST   -Y,R30
001069 81eb      	LDD  R30,Y+3
00106a e0f0      	LDI  R31,0
00106b 97b0      	SBIW R30,32
00106c e0a5      	LDI  R26,LOW(5)
00106d e0b0      	LDI  R27,HIGH(5)
00106e 940e 1441 	CALL __MULW12U
001070 5aec      	SUBI R30,LOW(-_ASCII*2)
001071 4fff      	SBCI R31,HIGH(-_ASCII*2)
001072 0fe0      	ADD  R30,R16
001073 1ff1      	ADC  R31,R17
001074 91e4      	LPM  R30,Z
001075 93ea      	ST   -Y,R30
001076 940c 037a 	JMP  _LcdWrite
                 
                 ;OPTIMIZER ADDED SUBROUTINE, CALLED 3 TIMES, CODE SIZE REDUCTION:3 WORDS
                 SUBOPT_0x5:
001078 93ea      	ST   -Y,R30
001079 e0e0      	LDI  R30,LOW(0)
00107a 93ea      	ST   -Y,R30
00107b 940c 037a 	JMP  _LcdWrite
                 
                 ;OPTIMIZER ADDED SUBROUTINE, CALLED 2 TIMES, CODE SIZE REDUCTION:1 WORDS
                 SUBOPT_0x6:
00107d 931a      	ST   -Y,R17
00107e 930a      	ST   -Y,R16
                +
00107f e000     +LDI R16 , LOW ( 0 )
001080 e010     +LDI R17 , HIGH ( 0 )
                 	__GETWRN 16,17,0
                +
001081 e000     +LDI R16 , LOW ( 0 )
001082 e010     +LDI R17 , HIGH ( 0 )
                 	__GETWRN 16,17,0
001083 9508      	RET
                 
                 ;OPTIMIZER ADDED SUBROUTINE, CALLED 36 TIMES, CODE SIZE REDUCTION:67 WORDS
                 SUBOPT_0x7:
001084 e0e0      	LDI  R30,LOW(0)
001085 e0f0      	LDI  R31,HIGH(0)
001086 93fa      	ST   -Y,R31
001087 93ea      	ST   -Y,R30
001088 9508      	RET
                 
                 ;OPTIMIZER ADDED SUBROUTINE, CALLED 5 TIMES, CODE SIZE REDUCTION:5 WORDS
                 SUBOPT_0x8:
001089 2fe1      	MOV  R30,R17
00108a e0f0      	LDI  R31,0
00108b 9508      	RET
                 
                 ;OPTIMIZER ADDED SUBROUTINE, CALLED 2 TIMES, CODE SIZE REDUCTION:16 WORDS
                 SUBOPT_0x9:
00108c 01de      	MOVW R26,R28
00108d 9611      	ADIW R26,1
00108e 0fea      	ADD  R30,R26
00108f 1ffb      	ADC  R31,R27
001090 01bf      	MOVW R22,R30
001091 81ae      	LDD  R26,Y+6
001092 81bf      	LDD  R27,Y+6+1
001093 e0ea      	LDI  R30,LOW(10)
001094 e0f0      	LDI  R31,HIGH(10)
001095 940e 14b5 	CALL __MODW21U
001097 01db      	MOVW R26,R22
001098 93ec      	ST   X,R30
001099 81ae      	LDD  R26,Y+6
00109a 81bf      	LDD  R27,Y+6+1
00109b e0ea      	LDI  R30,LOW(10)
00109c e0f0      	LDI  R31,HIGH(10)
00109d 940e 1473 	CALL __DIVW21U
00109f 83ee      	STD  Y+6,R30
0010a0 83ff      	STD  Y+6+1,R31
0010a1 9508      	RET
                 
                 ;OPTIMIZER ADDED SUBROUTINE, CALLED 2 TIMES, CODE SIZE REDUCTION:8 WORDS
                 SUBOPT_0xA:
0010a2 e0a4      	LDI  R26,LOW(4)
0010a3 e0b0      	LDI  R27,HIGH(4)
0010a4 940e 14f7 	CALL __SWAPW12
0010a6 1bea      	SUB  R30,R26
0010a7 0bfb      	SBC  R31,R27
0010a8 01de      	MOVW R26,R28
0010a9 9611      	ADIW R26,1
0010aa 0fae      	ADD  R26,R30
0010ab 1fbf      	ADC  R27,R31
0010ac 91ec      	LD   R30,X
0010ad 5de0      	SUBI R30,-LOW(48)
0010ae 93ea      	ST   -Y,R30
0010af 9508      	RET
                 
                 ;OPTIMIZER ADDED SUBROUTINE, CALLED 2 TIMES, CODE SIZE REDUCTION:1 WORDS
                 SUBOPT_0xB:
0010b0 eee8      	LDI  R30,LOW(1000)
0010b1 e0f3      	LDI  R31,HIGH(1000)
0010b2 93fa      	ST   -Y,R31
0010b3 93ea      	ST   -Y,R30
0010b4 940c 126c 	JMP  _delay_ms
                 
                 ;OPTIMIZER ADDED SUBROUTINE, CALLED 4 TIMES, CODE SIZE REDUCTION:3 WORDS
                 SUBOPT_0xC:
0010b6 1bea      	SUB  R30,R26
0010b7 0bfb      	SBC  R31,R27
0010b8 83e8      	ST   Y,R30
0010b9 83f9      	STD  Y+1,R31
0010ba 9508      	RET
                 
                 ;OPTIMIZER ADDED SUBROUTINE, CALLED 5 TIMES, CODE SIZE REDUCTION:5 WORDS
                 SUBOPT_0xD:
0010bb 93fa      	ST   -Y,R31
0010bc 93ea      	ST   -Y,R30
0010bd 940c 0412 	JMP  _wn16
                 
                 ;OPTIMIZER ADDED SUBROUTINE, CALLED 28 TIMES, CODE SIZE REDUCTION:51 WORDS
                 SUBOPT_0xE:
0010bf 93fa      	ST   -Y,R31
0010c0 93ea      	ST   -Y,R30
0010c1 940c 03b0 	JMP  _ws
                 
                 ;OPTIMIZER ADDED SUBROUTINE, CALLED 2 TIMES, CODE SIZE REDUCTION:1 WORDS
                 SUBOPT_0xF:
0010c3 50e1      	SUBI R30,LOW(1)
0010c4 e0f0      	LDI  R31,0
0010c5 59ed      	SUBI R30,LOW(-_rx_buffer)
0010c6 4ffa      	SBCI R31,HIGH(-_rx_buffer)
0010c7 9508      	RET
                 
                 ;OPTIMIZER ADDED SUBROUTINE, CALLED 2 TIMES, CODE SIZE REDUCTION:1 WORDS
                 SUBOPT_0x10:
0010c8 50e1      	SUBI R30,LOW(1)
0010c9 e0f0      	LDI  R31,0
0010ca 59e2      	SUBI R30,LOW(-_tx_buffer)
0010cb 4ffa      	SBCI R31,HIGH(-_tx_buffer)
0010cc 9508      	RET
                 
                 ;OPTIMIZER ADDED SUBROUTINE, CALLED 2 TIMES, CODE SIZE REDUCTION:1 WORDS
                 SUBOPT_0x11:
0010cd 93aa      	ST   -Y,R26
0010ce 93ba      	ST   -Y,R27
0010cf 93ea      	ST   -Y,R30
0010d0 93fa      	ST   -Y,R31
0010d1 b7ef      	IN   R30,SREG
0010d2 93ea      	ST   -Y,R30
0010d3 9508      	RET
                 
                 ;OPTIMIZER ADDED SUBROUTINE, CALLED 6 TIMES, CODE SIZE REDUCTION:37 WORDS
                 SUBOPT_0x12:
0010d4 e0e0      	LDI  R30,LOW(0)
0010d5 93e0 053d 	STS  _seRki_G001,R30
0010d7 93e0 053e 	STS  _seRki_G001+1,R30
0010d9 93e0 053f 	STS  _seLki_G001,R30
0010db 93e0 0540 	STS  _seLki_G001+1,R30
0010dd 9508      	RET
                 
                 ;OPTIMIZER ADDED SUBROUTINE, CALLED 2 TIMES, CODE SIZE REDUCTION:3 WORDS
                 SUBOPT_0x13:
0010de 81e8      	LD   R30,Y
0010df e0f0      	LDI  R31,0
0010e0 93e0 0539 	STS  _svQEL,R30
0010e2 93f0 053a 	STS  _svQEL+1,R31
0010e4 9508      	RET
                 
                 ;OPTIMIZER ADDED SUBROUTINE, CALLED 5 TIMES, CODE SIZE REDUCTION:9 WORDS
                 SUBOPT_0x14:
0010e5 91ed      	LD   R30,X+
0010e6 91fd      	LD   R31,X+
0010e7 9631      	ADIW R30,1
0010e8 93fe      	ST   -X,R31
0010e9 93ee      	ST   -X,R30
0010ea 9508      	RET
                 
                 ;OPTIMIZER ADDED SUBROUTINE, CALLED 4 TIMES, CODE SIZE REDUCTION:3 WORDS
                 SUBOPT_0x15:
0010eb e0e0      	LDI  R30,LOW(0)
0010ec 83e8      	ST   Y,R30
0010ed 83e9      	STD  Y+1,R30
0010ee 9508      	RET
                 
                 ;OPTIMIZER ADDED SUBROUTINE, CALLED 3 TIMES, CODE SIZE REDUCTION:1 WORDS
                 SUBOPT_0x16:
0010ef 91e0 0561 	LDS  R30,_QER
0010f1 91f0 0562 	LDS  R31,_QER+1
0010f3 9508      	RET
                 
                 ;OPTIMIZER ADDED SUBROUTINE, CALLED 7 TIMES, CODE SIZE REDUCTION:9 WORDS
                 SUBOPT_0x17:
0010f4 91e0 055f 	LDS  R30,_QEL
0010f6 91f0 0560 	LDS  R31,_QEL+1
0010f8 9508      	RET
                 
                 ;OPTIMIZER ADDED SUBROUTINE, CALLED 4 TIMES, CODE SIZE REDUCTION:3 WORDS
                 SUBOPT_0x18:
0010f9 91a0 053d 	LDS  R26,_seRki_G001
0010fb 91b0 053e 	LDS  R27,_seRki_G001+1
0010fd 9508      	RET
                 
                 ;OPTIMIZER ADDED SUBROUTINE, CALLED 3 TIMES, CODE SIZE REDUCTION:1 WORDS
                 SUBOPT_0x19:
0010fe 93e0 053d 	STS  _seRki_G001,R30
001100 93f0 053e 	STS  _seRki_G001+1,R31
001102 9508      	RET
                 
                 ;OPTIMIZER ADDED SUBROUTINE, CALLED 4 TIMES, CODE SIZE REDUCTION:3 WORDS
                 SUBOPT_0x1A:
001103 91a0 053f 	LDS  R26,_seLki_G001
001105 91b0 0540 	LDS  R27,_seLki_G001+1
001107 9508      	RET
                 
                 ;OPTIMIZER ADDED SUBROUTINE, CALLED 3 TIMES, CODE SIZE REDUCTION:1 WORDS
                 SUBOPT_0x1B:
001108 93e0 053f 	STS  _seLki_G001,R30
00110a 93f0 0540 	STS  _seLki_G001+1,R31
00110c 9508      	RET
                 
                 ;OPTIMIZER ADDED SUBROUTINE, CALLED 2 TIMES, CODE SIZE REDUCTION:6 WORDS
                 SUBOPT_0x1C:
00110d dfe6      	RCALL SUBOPT_0x17
00110e 91a0 0561 	LDS  R26,_QER
001110 91b0 0562 	LDS  R27,_QER+1
001112 0fae      	ADD  R26,R30
001113 1fbf      	ADC  R27,R31
001114 01fd      	MOVW R30,R26
001115 95f6      	LSR  R31
001116 95e7      	ROR  R30
001117 9508      	RET
                 
                 ;OPTIMIZER ADDED SUBROUTINE, CALLED 2 TIMES, CODE SIZE REDUCTION:3 WORDS
                 SUBOPT_0x1D:
001118 91e0 03ce 	LDS  R30,_rb
00111a 91f0 03cf 	LDS  R31,_rb+1
00111c 9160 03d0 	LDS  R22,_rb+2
00111e 9170 03d1 	LDS  R23,_rb+3
001120 9508      	RET
                 
                 ;OPTIMIZER ADDED SUBROUTINE, CALLED 3 TIMES, CODE SIZE REDUCTION:1 WORDS
                 SUBOPT_0x1E:
                +
001121 e0e0     +LDI R30 , LOW ( 0x41200000 )
001122 e0f0     +LDI R31 , HIGH ( 0x41200000 )
001123 e260     +LDI R22 , BYTE3 ( 0x41200000 )
001124 e471     +LDI R23 , BYTE4 ( 0x41200000 )
                 	__GETD1N 0x41200000
001125 9508      	RET
                 
                 ;OPTIMIZER ADDED SUBROUTINE, CALLED 2 TIMES, CODE SIZE REDUCTION:3 WORDS
                 SUBOPT_0x1F:
001126 93fa      	ST   -Y,R31
001127 93ea      	ST   -Y,R30
001128 e2e8      	LDI  R30,LOW(40)
001129 e0f0      	LDI  R31,HIGH(40)
00112a 93fa      	ST   -Y,R31
00112b 93ea      	ST   -Y,R30
00112c 940c 0387 	JMP  _hc
                 
                 ;OPTIMIZER ADDED SUBROUTINE, CALLED 3 TIMES, CODE SIZE REDUCTION:1 WORDS
                 SUBOPT_0x20:
00112e 940e 042a 	CALL _wn16s
001130 e0e4      	LDI  R30,LOW(4)
001131 e0f0      	LDI  R31,HIGH(4)
001132 9508      	RET
                 
                 ;OPTIMIZER ADDED SUBROUTINE, CALLED 2 TIMES, CODE SIZE REDUCTION:1 WORDS
                 SUBOPT_0x21:
001133 940e 042a 	CALL _wn16s
001135 e0e3      	LDI  R30,LOW(3)
001136 e0f0      	LDI  R31,HIGH(3)
001137 93fa      	ST   -Y,R31
001138 93ea      	ST   -Y,R30
001139 9508      	RET
                 
                 ;OPTIMIZER ADDED SUBROUTINE, CALLED 2 TIMES, CODE SIZE REDUCTION:1 WORDS
                 SUBOPT_0x22:
00113a e1e4      	LDI  R30,LOW(20)
00113b e0f0      	LDI  R31,HIGH(20)
00113c 93fa      	ST   -Y,R31
00113d 93ea      	ST   -Y,R30
00113e 940c 0387 	JMP  _hc
                 
                 ;OPTIMIZER ADDED SUBROUTINE, CALLED 4 TIMES, CODE SIZE REDUCTION:9 WORDS
                 SUBOPT_0x23:
001140 940e 12a7 	CALL __CFD1
001142 93fa      	ST   -Y,R31
001143 93ea      	ST   -Y,R30
001144 940c 042a 	JMP  _wn16s
                 
                 ;OPTIMIZER ADDED SUBROUTINE, CALLED 19 TIMES, CODE SIZE REDUCTION:33 WORDS
                 SUBOPT_0x24:
001146 e0e2      	LDI  R30,LOW(2)
001147 e0f0      	LDI  R31,HIGH(2)
001148 93fa      	ST   -Y,R31
001149 93ea      	ST   -Y,R30
00114a 9508      	RET
                 
                 ;OPTIMIZER ADDED SUBROUTINE, CALLED 14 TIMES, CODE SIZE REDUCTION:23 WORDS
                 SUBOPT_0x25:
00114b e0e1      	LDI  R30,LOW(1)
00114c e0f0      	LDI  R31,HIGH(1)
00114d 93fa      	ST   -Y,R31
00114e 93ea      	ST   -Y,R30
00114f 9508      	RET
                 
                 ;OPTIMIZER ADDED SUBROUTINE, CALLED 3 TIMES, CODE SIZE REDUCTION:5 WORDS
                 SUBOPT_0x26:
001150 ece8      	LDI  R30,LOW(200)
001151 e0f0      	LDI  R31,HIGH(200)
001152 93fa      	ST   -Y,R31
001153 93ea      	ST   -Y,R30
001154 940c 126c 	JMP  _delay_ms
                 
                 ;OPTIMIZER ADDED SUBROUTINE, CALLED 3 TIMES, CODE SIZE REDUCTION:9 WORDS
                 SUBOPT_0x27:
001156 e0e0      	LDI  R30,LOW(0)
001157 bbea      	OUT  0x1A,R30
001158 bbeb      	OUT  0x1B,R30
001159 940e 03bc 	CALL _LcdClear
00115b cf28      	RJMP SUBOPT_0x7
                 
                 ;OPTIMIZER ADDED SUBROUTINE, CALLED 16 TIMES, CODE SIZE REDUCTION:57 WORDS
                 SUBOPT_0x28:
00115c e0ea      	LDI  R30,LOW(10)
00115d e0f0      	LDI  R31,HIGH(10)
00115e 93fa      	ST   -Y,R31
00115f 93ea      	ST   -Y,R30
001160 940c 0387 	JMP  _hc
                 
                 ;OPTIMIZER ADDED SUBROUTINE, CALLED 2 TIMES, CODE SIZE REDUCTION:1 WORDS
                 SUBOPT_0x29:
001162 e2ea      	LDI  R30,LOW(42)
001163 e0f0      	LDI  R31,HIGH(42)
001164 93fa      	ST   -Y,R31
001165 93ea      	ST   -Y,R30
001166 940c 0387 	JMP  _hc
                 
                 ;OPTIMIZER ADDED SUBROUTINE, CALLED 2 TIMES, CODE SIZE REDUCTION:4 WORDS
                 SUBOPT_0x2A:
001168 93ea      	ST   -Y,R30
001169 940e 052c 	CALL _vMRlui
00116b e5e8      	LDI  R30,LOW(600)
00116c e0f2      	LDI  R31,HIGH(600)
00116d 93fa      	ST   -Y,R31
00116e 93ea      	ST   -Y,R30
00116f 940c 126c 	JMP  _delay_ms
                 
                 ;OPTIMIZER ADDED SUBROUTINE, CALLED 4 TIMES, CODE SIZE REDUCTION:3 WORDS
                 SUBOPT_0x2B:
001171 940e 0369 	CALL _LEDLtoggle
001173 940c 036f 	JMP  _LEDRtoggle
                 
                 ;OPTIMIZER ADDED SUBROUTINE, CALLED 16 TIMES, CODE SIZE REDUCTION:42 WORDS
                 SUBOPT_0x2C:
001175 01f8      	MOVW R30,R16
001176 e1af      	LDI  R26,LOW(_IRLINE)
001177 e0b5      	LDI  R27,HIGH(_IRLINE)
001178 0fee      	LSL  R30
001179 1fff      	ROL  R31
00117a 9508      	RET
                 
                 ;OPTIMIZER ADDED SUBROUTINE, CALLED 5 TIMES, CODE SIZE REDUCTION:5 WORDS
                 SUBOPT_0x2D:
                +
00117b 91a0 0523+LDS R26 , _IRLINE + ( 4 )
00117d 91b0 0524+LDS R27 , _IRLINE + ( 4 ) + 1
                 	__GETW2MN _IRLINE,4
00117f 9508      	RET
                 
                 ;OPTIMIZER ADDED SUBROUTINE, CALLED 18 TIMES, CODE SIZE REDUCTION:31 WORDS
                 SUBOPT_0x2E:
001180 0fae      	ADD  R26,R30
001181 1fbf      	ADC  R27,R31
001182 940e 14d9 	CALL __GETW1P
001184 9508      	RET
                 
                 ;OPTIMIZER ADDED SUBROUTINE, CALLED 4 TIMES, CODE SIZE REDUCTION:15 WORDS
                 SUBOPT_0x2F:
001185 940e 0821 	CALL _readline
                +
001187 9140 051f+LDS R20 , 0 + ( _IRLINE )
001189 9150 0520+LDS R21 , 0 + ( _IRLINE ) + 1
                 	__GETWRMN 20,21,0,_IRLINE
00118b e000      	LDI  R16,LOW(0)
00118c e011      	LDI  R17,LOW(1)
00118d 9508      	RET
                 
                 ;OPTIMIZER ADDED SUBROUTINE, CALLED 8 TIMES, CODE SIZE REDUCTION:39 WORDS
                 SUBOPT_0x30:
00118e 2fe1      	MOV  R30,R17
00118f e1af      	LDI  R26,LOW(_IRLINE)
001190 e0b5      	LDI  R27,HIGH(_IRLINE)
001191 e0f0      	LDI  R31,0
001192 0fee      	LSL  R30
001193 1fff      	ROL  R31
001194 9508      	RET
                 
                 ;OPTIMIZER ADDED SUBROUTINE, CALLED 4 TIMES, CODE SIZE REDUCTION:6 WORDS
                 SUBOPT_0x31:
001195 0fae      	ADD  R26,R30
001196 1fbf      	ADC  R27,R31
001197 914d      	LD   R20,X+
001198 915c      	LD   R21,X
001199 2f01      	MOV  R16,R17
00119a 9508      	RET
                 
                 ;OPTIMIZER ADDED SUBROUTINE, CALLED 3 TIMES, CODE SIZE REDUCTION:1 WORDS
                 SUBOPT_0x32:
00119b 2fe0      	MOV  R30,R16
00119c e0f0      	LDI  R31,0
00119d 9508      	RET
                 
                 ;OPTIMIZER ADDED SUBROUTINE, CALLED 4 TIMES, CODE SIZE REDUCTION:3 WORDS
                 SUBOPT_0x33:
00119e e0e1      	LDI  R30,LOW(1)
00119f 93ea      	ST   -Y,R30
0011a0 940c 0510 	JMP  _vMLtoi
                 
                 ;OPTIMIZER ADDED SUBROUTINE, CALLED 4 TIMES, CODE SIZE REDUCTION:3 WORDS
                 SUBOPT_0x34:
0011a2 e1e4      	LDI  R30,LOW(20)
0011a3 93ea      	ST   -Y,R30
0011a4 940c 0528 	JMP  _vMRtoi
                 
                 ;OPTIMIZER ADDED SUBROUTINE, CALLED 3 TIMES, CODE SIZE REDUCTION:1 WORDS
                 SUBOPT_0x35:
0011a6 e0ef      	LDI  R30,LOW(15)
0011a7 93ea      	ST   -Y,R30
0011a8 940c 0528 	JMP  _vMRtoi
                 
                 ;OPTIMIZER ADDED SUBROUTINE, CALLED 3 TIMES, CODE SIZE REDUCTION:1 WORDS
                 SUBOPT_0x36:
0011aa e0ef      	LDI  R30,LOW(15)
0011ab 93ea      	ST   -Y,R30
0011ac 940c 0510 	JMP  _vMLtoi
                 
                 ;OPTIMIZER ADDED SUBROUTINE, CALLED 4 TIMES, CODE SIZE REDUCTION:3 WORDS
                 SUBOPT_0x37:
0011ae e0e1      	LDI  R30,LOW(1)
0011af 93ea      	ST   -Y,R30
0011b0 940c 0528 	JMP  _vMRtoi
                 
                 ;OPTIMIZER ADDED SUBROUTINE, CALLED 2 TIMES, CODE SIZE REDUCTION:1 WORDS
                 SUBOPT_0x38:
0011b2 e1e4      	LDI  R30,LOW(20)
0011b3 93ea      	ST   -Y,R30
0011b4 940e 0510 	CALL _vMLtoi
0011b6 cff7      	RJMP SUBOPT_0x37
                 
                 ;OPTIMIZER ADDED SUBROUTINE, CALLED 4 TIMES, CODE SIZE REDUCTION:3 WORDS
                 SUBOPT_0x39:
0011b7 e0a0      	LDI  R26,0
0011b8 9998      	SBIC 0x13,0
0011b9 e0a1      	LDI  R26,1
0011ba 30a0      	CPI  R26,LOW(0x0)
0011bb 9508      	RET
                 
                 ;OPTIMIZER ADDED SUBROUTINE, CALLED 2 TIMES, CODE SIZE REDUCTION:1 WORDS
                 SUBOPT_0x3A:
0011bc e0e3      	LDI  R30,LOW(3)
0011bd e0f0      	LDI  R31,HIGH(3)
0011be 93fa      	ST   -Y,R31
0011bf 93ea      	ST   -Y,R30
0011c0 cf9b      	RJMP SUBOPT_0x28
                 
                 ;OPTIMIZER ADDED SUBROUTINE, CALLED 3 TIMES, CODE SIZE REDUCTION:1 WORDS
                 SUBOPT_0x3B:
0011c1 93fa      	ST   -Y,R31
0011c2 93ea      	ST   -Y,R30
0011c3 cf98      	RJMP SUBOPT_0x28
                 
                 ;OPTIMIZER ADDED SUBROUTINE, CALLED 4 TIMES, CODE SIZE REDUCTION:27 WORDS
                 SUBOPT_0x3C:
0011c4 940e 0821 	CALL _readline
0011c6 91e0 051f 	LDS  R30,_IRLINE
0011c8 91f0 0520 	LDS  R31,_IRLINE+1
0011ca a3eb      	STD  Y+35,R30
0011cb a3fc      	STD  Y+35+1,R31
                +
0011cc e040     +LDI R20 , LOW ( 0 )
0011cd e050     +LDI R21 , HIGH ( 0 )
                 	__GETWRN 20,21,0
                +
0011ce e001     +LDI R16 , LOW ( 1 )
0011cf e010     +LDI R17 , HIGH ( 1 )
                 	__GETWRN 16,17,1
0011d0 9508      	RET
                 
                 ;OPTIMIZER ADDED SUBROUTINE, CALLED 5 TIMES, CODE SIZE REDUCTION:5 WORDS
                 SUBOPT_0x3D:
0011d1 a1ab      	LDD  R26,Y+35
0011d2 a1bc      	LDD  R27,Y+35+1
0011d3 17ea      	CP   R30,R26
0011d4 07fb      	CPC  R31,R27
0011d5 9508      	RET
                 
                 ;OPTIMIZER ADDED SUBROUTINE, CALLED 2 TIMES, CODE SIZE REDUCTION:1 WORDS
                 SUBOPT_0x3E:
0011d6 a1eb      	LDD  R30,Y+35
0011d7 a1fc      	LDD  R31,Y+35+1
0011d8 93fa      	ST   -Y,R31
0011d9 93ea      	ST   -Y,R30
0011da 940c 042a 	JMP  _wn16s
                 
                 ;OPTIMIZER ADDED SUBROUTINE, CALLED 3 TIMES, CODE SIZE REDUCTION:1 WORDS
                 SUBOPT_0x3F:
                +
0011dc 87ec     +STD Y + 12 , R30
0011dd 87fd     +STD Y + 12 + 1 , R31
0011de 876e     +STD Y + 12 + 2 , R22
0011df 877f     +STD Y + 12 + 3 , R23
                 	__PUTD1S 12
0011e0 9508      	RET
                 
                 ;OPTIMIZER ADDED SUBROUTINE, CALLED 4 TIMES, CODE SIZE REDUCTION:3 WORDS
                 SUBOPT_0x40:
                +
0011e1 85ac     +LDD R26 , Y + 12
0011e2 85bd     +LDD R27 , Y + 12 + 1
0011e3 858e     +LDD R24 , Y + 12 + 2
0011e4 859f     +LDD R25 , Y + 12 + 3
                 	__GETD2S 12
0011e5 9508      	RET
                 
                 ;OPTIMIZER ADDED SUBROUTINE, CALLED 2 TIMES, CODE SIZE REDUCTION:3 WORDS
                 SUBOPT_0x41:
0011e6 940e 13b6 	CALL __DIVF21
                +
0011e8 89a8     +LDD R26 , Y + 16
0011e9 89b9     +LDD R27 , Y + 16 + 1
0011ea 898a     +LDD R24 , Y + 16 + 2
0011eb 899b     +LDD R25 , Y + 16 + 3
                 	__GETD2S 16
0011ec 940e 1318 	CALL __ADDF12
0011ee 9508      	RET
                 
                 ;OPTIMIZER ADDED SUBROUTINE, CALLED 3 TIMES, CODE SIZE REDUCTION:1 WORDS
                 SUBOPT_0x42:
                +
0011ef 8be8     +STD Y + 16 , R30
0011f0 8bf9     +STD Y + 16 + 1 , R31
0011f1 8b6a     +STD Y + 16 + 2 , R22
0011f2 8b7b     +STD Y + 16 + 3 , R23
                 	__PUTD1S 16
0011f3 9508      	RET
                 
                 ;OPTIMIZER ADDED SUBROUTINE, CALLED 3 TIMES, CODE SIZE REDUCTION:1 WORDS
                 SUBOPT_0x43:
                +
0011f4 85a8     +LDD R26 , Y + 8
0011f5 85b9     +LDD R27 , Y + 8 + 1
0011f6 858a     +LDD R24 , Y + 8 + 2
0011f7 859b     +LDD R25 , Y + 8 + 3
                 	__GETD2S 8
0011f8 9508      	RET
                 
                 ;OPTIMIZER ADDED SUBROUTINE, CALLED 3 TIMES, CODE SIZE REDUCTION:1 WORDS
                 SUBOPT_0x44:
                +
0011f9 8bec     +STD Y + 20 , R30
0011fa 8bfd     +STD Y + 20 + 1 , R31
0011fb 8b6e     +STD Y + 20 + 2 , R22
0011fc 8b7f     +STD Y + 20 + 3 , R23
                 	__PUTD1S 20
0011fd 9508      	RET
                 
                 ;OPTIMIZER ADDED SUBROUTINE, CALLED 3 TIMES, CODE SIZE REDUCTION:1 WORDS
                 SUBOPT_0x45:
                +
0011fe 89ac     +LDD R26 , Y + 20
0011ff 89bd     +LDD R27 , Y + 20 + 1
001200 898e     +LDD R24 , Y + 20 + 2
001201 899f     +LDD R25 , Y + 20 + 3
                 	__GETD2S 20
001202 9508      	RET
                 
                 ;OPTIMIZER ADDED SUBROUTINE, CALLED 2 TIMES, CODE SIZE REDUCTION:2 WORDS
                 SUBOPT_0x46:
001203 dff5      	RCALL SUBOPT_0x44
001204 e0e0      	LDI  R30,LOW(0)
                +
001205 8be8     +STD Y + 16 , R30
001206 8be9     +STD Y + 16 + 1 , R30
001207 8bea     +STD Y + 16 + 2 , R30
001208 8beb     +STD Y + 16 + 3 , R30
                 	__CLRD1S 16
001209 9508      	RET
                 
                 ;OPTIMIZER ADDED SUBROUTINE, CALLED 2 TIMES, CODE SIZE REDUCTION:2 WORDS
                 SUBOPT_0x47:
00120a 93ea      	ST   -Y,R30
00120b 940e 0510 	CALL _vMLtoi
00120d e0e2      	LDI  R30,LOW(2)
00120e 93ea      	ST   -Y,R30
00120f 940c 0528 	JMP  _vMRtoi
                 
                 ;OPTIMIZER ADDED SUBROUTINE, CALLED 4 TIMES, CODE SIZE REDUCTION:3 WORDS
                 SUBOPT_0x48:
001211 940e 03bc 	CALL _LcdClear
001213 ce70      	RJMP SUBOPT_0x7
                 
                 ;OPTIMIZER ADDED SUBROUTINE, CALLED 8 TIMES, CODE SIZE REDUCTION:11 WORDS
                 SUBOPT_0x49:
001214 93fa      	ST   -Y,R31
001215 93ea      	ST   -Y,R30
001216 940c 0387 	JMP  _hc
                 
                 ;OPTIMIZER ADDED SUBROUTINE, CALLED 2 TIMES, CODE SIZE REDUCTION:11 WORDS
                 SUBOPT_0x4A:
001218 9aac      	SBI  0x15,4
001219 9aad      	SBI  0x15,5
00121a e6e4      	LDI  R30,LOW(100)
00121b e0f0      	LDI  R31,HIGH(100)
00121c 93fa      	ST   -Y,R31
00121d 93ea      	ST   -Y,R30
00121e 940e 126c 	CALL _delay_ms
001220 98ac      	CBI  0x15,4
001221 98ad      	CBI  0x15,5
001222 e6e4      	LDI  R30,LOW(100)
001223 e0f0      	LDI  R31,HIGH(100)
001224 93fa      	ST   -Y,R31
001225 93ea      	ST   -Y,R30
001226 940c 126c 	JMP  _delay_ms
                 
                 ;OPTIMIZER ADDED SUBROUTINE, CALLED 2 TIMES, CODE SIZE REDUCTION:2 WORDS
                 SUBOPT_0x4B:
001228 93ea      	ST   -Y,R30
001229 940e 0510 	CALL _vMLtoi
00122b e0e0      	LDI  R30,LOW(0)
00122c 93ea      	ST   -Y,R30
00122d 940c 0528 	JMP  _vMRtoi
                 
                 ;OPTIMIZER ADDED SUBROUTINE, CALLED 2 TIMES, CODE SIZE REDUCTION:2 WORDS
                 SUBOPT_0x4C:
00122f 93ea      	ST   -Y,R30
001230 940e 0510 	CALL _vMLtoi
001232 e6e4      	LDI  R30,LOW(100)
001233 93ea      	ST   -Y,R30
001234 940c 0528 	JMP  _vMRtoi
                 
                 ;OPTIMIZER ADDED SUBROUTINE, CALLED 4 TIMES, CODE SIZE REDUCTION:3 WORDS
                 SUBOPT_0x4D:
001236 e0e3      	LDI  R30,LOW(3)
001237 e0f0      	LDI  R31,HIGH(3)
001238 93fa      	ST   -Y,R31
001239 93ea      	ST   -Y,R30
00123a 9508      	RET
                 
                 ;OPTIMIZER ADDED SUBROUTINE, CALLED 10 TIMES, CODE SIZE REDUCTION:33 WORDS
                 SUBOPT_0x4E:
00123b e0ea      	LDI  R30,LOW(10)
00123c e0f0      	LDI  R31,HIGH(10)
00123d 93fa      	ST   -Y,R31
00123e 93ea      	ST   -Y,R30
00123f 940c 126c 	JMP  _delay_ms
                 
                 ;OPTIMIZER ADDED SUBROUTINE, CALLED 8 TIMES, CODE SIZE REDUCTION:11 WORDS
                 SUBOPT_0x4F:
001241 93fa      	ST   -Y,R31
001242 93ea      	ST   -Y,R30
001243 940c 03e0 	JMP  _wn164
                 
                 ;OPTIMIZER ADDED SUBROUTINE, CALLED 4 TIMES, CODE SIZE REDUCTION:3 WORDS
                 SUBOPT_0x50:
001245 e2eb      	LDI  R30,LOW(43)
001246 e0f0      	LDI  R31,HIGH(43)
001247 cfcc      	RJMP SUBOPT_0x49
                 
                 ;OPTIMIZER ADDED SUBROUTINE, CALLED 3 TIMES, CODE SIZE REDUCTION:9 WORDS
                 SUBOPT_0x51:
001248 91e0 051a 	LDS  R30,_id
00124a e0f0      	LDI  R31,0
00124b 30e1      	CPI  R30,LOW(0x1)
00124c e0a0      	LDI  R26,HIGH(0x1)
00124d 07fa      	CPC  R31,R26
00124e 9508      	RET
                 
                 ;OPTIMIZER ADDED SUBROUTINE, CALLED 4 TIMES, CODE SIZE REDUCTION:3 WORDS
                 SUBOPT_0x52:
00124f 93fa      	ST   -Y,R31
001250 93ea      	ST   -Y,R30
001251 940c 126c 	JMP  _delay_ms
                 
                 ;OPTIMIZER ADDED SUBROUTINE, CALLED 2 TIMES, CODE SIZE REDUCTION:2 WORDS
                 SUBOPT_0x53:
001253 bfe3      	OUT  0x33,R30
001254 e0e0      	LDI  R30,LOW(0)
001255 bfe2      	OUT  0x32,R30
001256 bfec      	OUT  0x3C,R30
001257 bde2      	OUT  0x22,R30
001258 9508      	RET
                 
                 ;OPTIMIZER ADDED SUBROUTINE, CALLED 11 TIMES, CODE SIZE REDUCTION:17 WORDS
                 SUBOPT_0x54:
001259 940e 0da7 	CALL _outlcd1
00125b ceea      	RJMP SUBOPT_0x24
                 
                 ;OPTIMIZER ADDED SUBROUTINE, CALLED 10 TIMES, CODE SIZE REDUCTION:15 WORDS
                 SUBOPT_0x55:
00125c 940e 14dd 	CALL __GETD1S0
00125e 9508      	RET
                 
                 ;OPTIMIZER ADDED SUBROUTINE, CALLED 2 TIMES, CODE SIZE REDUCTION:3 WORDS
                 SUBOPT_0x56:
00125f 940e 14ec 	CALL __PUTPARD1
001261 940e 0fb8 	CALL _ftrunc
001263 940e 14e7 	CALL __PUTD1S0
001265 9508      	RET
                 
                 ;OPTIMIZER ADDED SUBROUTINE, CALLED 2 TIMES, CODE SIZE REDUCTION:1 WORDS
                 SUBOPT_0x57:
001266 dff5      	RCALL SUBOPT_0x55
                +
001267 e0a0     +LDI R26 , LOW ( 0x3F800000 )
001268 e0b0     +LDI R27 , HIGH ( 0x3F800000 )
001269 e880     +LDI R24 , BYTE3 ( 0x3F800000 )
00126a e39f     +LDI R25 , BYTE4 ( 0x3F800000 )
                 	__GETD2N 0x3F800000
00126b 9508      	RET
                 
                 
                 	.CSEG
                 _delay_ms:
00126c 91e9      	ld   r30,y+
00126d 91f9      	ld   r31,y+
00126e 9630      	adiw r30,0
00126f f039      	breq __delay_ms1
                 __delay_ms0:
                +
001270 ed80     +LDI R24 , LOW ( 0x7D0 )
001271 e097     +LDI R25 , HIGH ( 0x7D0 )
                +__DELAY_USW_LOOP :
001272 9701     +SBIW R24 , 1
001273 f7f1     +BRNE __DELAY_USW_LOOP
                 	__DELAY_USW 0x7D0
001274 95a8      	wdr
001275 9731      	sbiw r30,1
001276 f7c9      	brne __delay_ms0
                 __delay_ms1:
001277 9508      	ret
                 
                 __ROUND_REPACK:
001278 2355      	TST  R21
001279 f442      	BRPL __REPACK
00127a 3850      	CPI  R21,0x80
00127b f411      	BRNE __ROUND_REPACK0
00127c ffe0      	SBRS R30,0
00127d c004      	RJMP __REPACK
                 __ROUND_REPACK0:
00127e 9631      	ADIW R30,1
00127f 1f69      	ADC  R22,R25
001280 1f79      	ADC  R23,R25
001281 f06b      	BRVS __REPACK1
                 
                 __REPACK:
001282 e850      	LDI  R21,0x80
001283 2757      	EOR  R21,R23
001284 f411      	BRNE __REPACK0
001285 935f      	PUSH R21
001286 c0cf      	RJMP __ZERORES
                 __REPACK0:
001287 3f5f      	CPI  R21,0xFF
001288 f031      	BREQ __REPACK1
001289 0f66      	LSL  R22
00128a 0c00      	LSL  R0
00128b 9557      	ROR  R21
00128c 9567      	ROR  R22
00128d 2f75      	MOV  R23,R21
00128e 9508      	RET
                 __REPACK1:
00128f 935f      	PUSH R21
001290 2000      	TST  R0
001291 f00a      	BRMI __REPACK2
001292 c0cf      	RJMP __MAXRES
                 __REPACK2:
001293 c0c8      	RJMP __MINRES
                 
                 __UNPACK:
001294 e850      	LDI  R21,0x80
001295 2e19      	MOV  R1,R25
001296 2215      	AND  R1,R21
001297 0f88      	LSL  R24
001298 1f99      	ROL  R25
001299 2795      	EOR  R25,R21
00129a 0f55      	LSL  R21
00129b 9587      	ROR  R24
                 
                 __UNPACK1:
00129c e850      	LDI  R21,0x80
00129d 2e07      	MOV  R0,R23
00129e 2205      	AND  R0,R21
00129f 0f66      	LSL  R22
0012a0 1f77      	ROL  R23
0012a1 2775      	EOR  R23,R21
0012a2 0f55      	LSL  R21
0012a3 9567      	ROR  R22
0012a4 9508      	RET
                 
                 __CFD1U:
0012a5 9468      	SET
0012a6 c001      	RJMP __CFD1U0
                 __CFD1:
0012a7 94e8      	CLT
                 __CFD1U0:
0012a8 935f      	PUSH R21
0012a9 dff2      	RCALL __UNPACK1
0012aa 3870      	CPI  R23,0x80
0012ab f018      	BRLO __CFD10
0012ac 3f7f      	CPI  R23,0xFF
0012ad f408      	BRCC __CFD10
0012ae c0a7      	RJMP __ZERORES
                 __CFD10:
0012af e156      	LDI  R21,22
0012b0 1b57      	SUB  R21,R23
0012b1 f4aa      	BRPL __CFD11
0012b2 9551      	NEG  R21
0012b3 3058      	CPI  R21,8
0012b4 f40e      	BRTC __CFD19
0012b5 3059      	CPI  R21,9
                 __CFD19:
0012b6 f030      	BRLO __CFD17
0012b7 efef      	SER  R30
0012b8 efff      	SER  R31
0012b9 ef6f      	SER  R22
0012ba e77f      	LDI  R23,0x7F
0012bb f977      	BLD  R23,7
0012bc c01a      	RJMP __CFD15
                 __CFD17:
0012bd 2777      	CLR  R23
0012be 2355      	TST  R21
0012bf f0b9      	BREQ __CFD15
                 __CFD18:
0012c0 0fee      	LSL  R30
0012c1 1fff      	ROL  R31
0012c2 1f66      	ROL  R22
0012c3 1f77      	ROL  R23
0012c4 955a      	DEC  R21
0012c5 f7d1      	BRNE __CFD18
0012c6 c010      	RJMP __CFD15
                 __CFD11:
0012c7 2777      	CLR  R23
                 __CFD12:
0012c8 3058      	CPI  R21,8
0012c9 f028      	BRLO __CFD13
0012ca 2fef      	MOV  R30,R31
0012cb 2ff6      	MOV  R31,R22
0012cc 2f67      	MOV  R22,R23
0012cd 5058      	SUBI R21,8
0012ce cff9      	RJMP __CFD12
                 __CFD13:
0012cf 2355      	TST  R21
0012d0 f031      	BREQ __CFD15
                 __CFD14:
0012d1 9576      	LSR  R23
0012d2 9567      	ROR  R22
0012d3 95f7      	ROR  R31
0012d4 95e7      	ROR  R30
0012d5 955a      	DEC  R21
0012d6 f7d1      	BRNE __CFD14
                 __CFD15:
0012d7 2000      	TST  R0
0012d8 f40a      	BRPL __CFD16
0012d9 d14f      	RCALL __ANEGD1
                 __CFD16:
0012da 915f      	POP  R21
0012db 9508      	RET
                 
                 __CDF1U:
0012dc 9468      	SET
0012dd c001      	RJMP __CDF1U0
                 __CDF1:
0012de 94e8      	CLT
                 __CDF1U0:
0012df 9730      	SBIW R30,0
0012e0 4060      	SBCI R22,0
0012e1 4070      	SBCI R23,0
0012e2 f0b1      	BREQ __CDF10
0012e3 2400      	CLR  R0
0012e4 f026      	BRTS __CDF11
0012e5 2377      	TST  R23
0012e6 f412      	BRPL __CDF11
0012e7 9400      	COM  R0
0012e8 d140      	RCALL __ANEGD1
                 __CDF11:
0012e9 2e17      	MOV  R1,R23
0012ea e17e      	LDI  R23,30
0012eb 2011      	TST  R1
                 __CDF12:
0012ec f032      	BRMI __CDF13
0012ed 957a      	DEC  R23
0012ee 0fee      	LSL  R30
0012ef 1fff      	ROL  R31
0012f0 1f66      	ROL  R22
0012f1 1c11      	ROL  R1
0012f2 cff9      	RJMP __CDF12
                 __CDF13:
0012f3 2fef      	MOV  R30,R31
0012f4 2ff6      	MOV  R31,R22
0012f5 2d61      	MOV  R22,R1
0012f6 935f      	PUSH R21
0012f7 df8a      	RCALL __REPACK
0012f8 915f      	POP  R21
                 __CDF10:
0012f9 9508      	RET
                 
                 __SWAPACC:
0012fa 934f      	PUSH R20
0012fb 01af      	MOVW R20,R30
0012fc 01fd      	MOVW R30,R26
0012fd 01da      	MOVW R26,R20
0012fe 01ab      	MOVW R20,R22
0012ff 01bc      	MOVW R22,R24
001300 01ca      	MOVW R24,R20
001301 2d40      	MOV  R20,R0
001302 2c01      	MOV  R0,R1
001303 2e14      	MOV  R1,R20
001304 914f      	POP  R20
001305 9508      	RET
                 
                 __UADD12:
001306 0fea      	ADD  R30,R26
001307 1ffb      	ADC  R31,R27
001308 1f68      	ADC  R22,R24
001309 9508      	RET
                 
                 __NEGMAN1:
00130a 95e0      	COM  R30
00130b 95f0      	COM  R31
00130c 9560      	COM  R22
00130d 5fef      	SUBI R30,-1
00130e 4fff      	SBCI R31,-1
00130f 4f6f      	SBCI R22,-1
001310 9508      	RET
                 
                 __SUBF12:
001311 935f      	PUSH R21
001312 df81      	RCALL __UNPACK
001313 3890      	CPI  R25,0x80
001314 f171      	BREQ __ADDF129
001315 e850      	LDI  R21,0x80
001316 2615      	EOR  R1,R21
                 
001317 c004      	RJMP __ADDF120
                 
                 __ADDF12:
001318 935f      	PUSH R21
001319 df7a      	RCALL __UNPACK
00131a 3890      	CPI  R25,0x80
00131b f139      	BREQ __ADDF129
                 
                 __ADDF120:
00131c 3870      	CPI  R23,0x80
00131d f121      	BREQ __ADDF128
                 __ADDF121:
00131e 2f57      	MOV  R21,R23
00131f 1b59      	SUB  R21,R25
001320 f12b      	BRVS __ADDF1211
001321 f412      	BRPL __ADDF122
001322 dfd7      	RCALL __SWAPACC
001323 cffa      	RJMP __ADDF121
                 __ADDF122:
001324 3158      	CPI  R21,24
001325 f018      	BRLO __ADDF123
001326 27aa      	CLR  R26
001327 27bb      	CLR  R27
001328 2788      	CLR  R24
                 __ADDF123:
001329 3058      	CPI  R21,8
00132a f028      	BRLO __ADDF124
00132b 2fab      	MOV  R26,R27
00132c 2fb8      	MOV  R27,R24
00132d 2788      	CLR  R24
00132e 5058      	SUBI R21,8
00132f cff9      	RJMP __ADDF123
                 __ADDF124:
001330 2355      	TST  R21
001331 f029      	BREQ __ADDF126
                 __ADDF125:
001332 9586      	LSR  R24
001333 95b7      	ROR  R27
001334 95a7      	ROR  R26
001335 955a      	DEC  R21
001336 f7d9      	BRNE __ADDF125
                 __ADDF126:
001337 2d50      	MOV  R21,R0
001338 2551      	EOR  R21,R1
001339 f072      	BRMI __ADDF127
00133a dfcb      	RCALL __UADD12
00133b f438      	BRCC __ADDF129
00133c 9567      	ROR  R22
00133d 95f7      	ROR  R31
00133e 95e7      	ROR  R30
00133f 9573      	INC  R23
001340 f413      	BRVC __ADDF129
001341 c020      	RJMP __MAXRES
                 __ADDF128:
001342 dfb7      	RCALL __SWAPACC
                 __ADDF129:
001343 df3e      	RCALL __REPACK
001344 915f      	POP  R21
001345 9508      	RET
                 __ADDF1211:
001346 f7d8      	BRCC __ADDF128
001347 cffb      	RJMP __ADDF129
                 __ADDF127:
001348 1bea      	SUB  R30,R26
001349 0bfb      	SBC  R31,R27
00134a 0b68      	SBC  R22,R24
00134b f051      	BREQ __ZERORES
00134c f410      	BRCC __ADDF1210
00134d 9400      	COM  R0
00134e dfbb      	RCALL __NEGMAN1
                 __ADDF1210:
00134f 2366      	TST  R22
001350 f392      	BRMI __ADDF129
001351 0fee      	LSL  R30
001352 1fff      	ROL  R31
001353 1f66      	ROL  R22
001354 957a      	DEC  R23
001355 f7cb      	BRVC __ADDF1210
                 
                 __ZERORES:
001356 27ee      	CLR  R30
001357 27ff      	CLR  R31
001358 2766      	CLR  R22
001359 2777      	CLR  R23
00135a 915f      	POP  R21
00135b 9508      	RET
                 
                 __MINRES:
00135c efef      	SER  R30
00135d efff      	SER  R31
00135e e76f      	LDI  R22,0x7F
00135f ef7f      	SER  R23
001360 915f      	POP  R21
001361 9508      	RET
                 
                 __MAXRES:
001362 efef      	SER  R30
001363 efff      	SER  R31
001364 e76f      	LDI  R22,0x7F
001365 e77f      	LDI  R23,0x7F
001366 915f      	POP  R21
001367 9508      	RET
                 
                 __MULF12:
001368 935f      	PUSH R21
001369 df2a      	RCALL __UNPACK
00136a 3870      	CPI  R23,0x80
00136b f351      	BREQ __ZERORES
00136c 3890      	CPI  R25,0x80
00136d f341      	BREQ __ZERORES
00136e 2401      	EOR  R0,R1
00136f 9408      	SEC
001370 1f79      	ADC  R23,R25
001371 f423      	BRVC __MULF124
001372 f31c      	BRLT __ZERORES
                 __MULF125:
001373 2000      	TST  R0
001374 f33a      	BRMI __MINRES
001375 cfec      	RJMP __MAXRES
                 __MULF124:
001376 920f      	PUSH R0
001377 931f      	PUSH R17
001378 932f      	PUSH R18
001379 933f      	PUSH R19
00137a 934f      	PUSH R20
00137b 2711      	CLR  R17
00137c 2722      	CLR  R18
00137d 2799      	CLR  R25
00137e 9f68      	MUL  R22,R24
00137f 01a0      	MOVW R20,R0
001380 9f8f      	MUL  R24,R31
001381 2d30      	MOV  R19,R0
001382 0d41      	ADD  R20,R1
001383 1f59      	ADC  R21,R25
001384 9f6b      	MUL  R22,R27
001385 0d30      	ADD  R19,R0
001386 1d41      	ADC  R20,R1
001387 1f59      	ADC  R21,R25
001388 9f8e      	MUL  R24,R30
001389 d027      	RCALL __MULF126
00138a 9fbf      	MUL  R27,R31
00138b d025      	RCALL __MULF126
00138c 9f6a      	MUL  R22,R26
00138d d023      	RCALL __MULF126
00138e 9fbe      	MUL  R27,R30
00138f d01d      	RCALL __MULF127
001390 9faf      	MUL  R26,R31
001391 d01b      	RCALL __MULF127
001392 9fae      	MUL  R26,R30
001393 0d11      	ADD  R17,R1
001394 1f29      	ADC  R18,R25
001395 1f39      	ADC  R19,R25
001396 1f49      	ADC  R20,R25
001397 1f59      	ADC  R21,R25
001398 2fe3      	MOV  R30,R19
001399 2ff4      	MOV  R31,R20
00139a 2f65      	MOV  R22,R21
00139b 2f52      	MOV  R21,R18
00139c 914f      	POP  R20
00139d 913f      	POP  R19
00139e 912f      	POP  R18
00139f 911f      	POP  R17
0013a0 900f      	POP  R0
0013a1 2366      	TST  R22
0013a2 f02a      	BRMI __MULF122
0013a3 0f55      	LSL  R21
0013a4 1fee      	ROL  R30
0013a5 1fff      	ROL  R31
0013a6 1f66      	ROL  R22
0013a7 c002      	RJMP __MULF123
                 __MULF122:
0013a8 9573      	INC  R23
0013a9 f24b      	BRVS __MULF125
                 __MULF123:
0013aa decd      	RCALL __ROUND_REPACK
0013ab 915f      	POP  R21
0013ac 9508      	RET
                 
                 __MULF127:
0013ad 0d10      	ADD  R17,R0
0013ae 1d21      	ADC  R18,R1
0013af 1f39      	ADC  R19,R25
0013b0 c002      	RJMP __MULF128
                 __MULF126:
0013b1 0d20      	ADD  R18,R0
0013b2 1d31      	ADC  R19,R1
                 __MULF128:
0013b3 1f49      	ADC  R20,R25
0013b4 1f59      	ADC  R21,R25
0013b5 9508      	RET
                 
                 __DIVF21:
0013b6 935f      	PUSH R21
0013b7 dedc      	RCALL __UNPACK
0013b8 3870      	CPI  R23,0x80
0013b9 f421      	BRNE __DIVF210
0013ba 2011      	TST  R1
                 __DIVF211:
0013bb f40a      	BRPL __DIVF219
0013bc cf9f      	RJMP __MINRES
                 __DIVF219:
0013bd cfa4      	RJMP __MAXRES
                 __DIVF210:
0013be 3890      	CPI  R25,0x80
0013bf f409      	BRNE __DIVF218
                 __DIVF217:
0013c0 cf95      	RJMP __ZERORES
                 __DIVF218:
0013c1 2401      	EOR  R0,R1
0013c2 9408      	SEC
0013c3 0b97      	SBC  R25,R23
0013c4 f41b      	BRVC __DIVF216
0013c5 f3d4      	BRLT __DIVF217
0013c6 2000      	TST  R0
0013c7 cff3      	RJMP __DIVF211
                 __DIVF216:
0013c8 2f79      	MOV  R23,R25
0013c9 931f      	PUSH R17
0013ca 932f      	PUSH R18
0013cb 933f      	PUSH R19
0013cc 934f      	PUSH R20
0013cd 2411      	CLR  R1
0013ce 2711      	CLR  R17
0013cf 2722      	CLR  R18
0013d0 2733      	CLR  R19
0013d1 2744      	CLR  R20
0013d2 2755      	CLR  R21
0013d3 e290      	LDI  R25,32
                 __DIVF212:
0013d4 17ae      	CP   R26,R30
0013d5 07bf      	CPC  R27,R31
0013d6 0786      	CPC  R24,R22
0013d7 0741      	CPC  R20,R17
0013d8 f030      	BRLO __DIVF213
0013d9 1bae      	SUB  R26,R30
0013da 0bbf      	SBC  R27,R31
0013db 0b86      	SBC  R24,R22
0013dc 0b41      	SBC  R20,R17
0013dd 9408      	SEC
0013de c001      	RJMP __DIVF214
                 __DIVF213:
0013df 9488      	CLC
                 __DIVF214:
0013e0 1f55      	ROL  R21
0013e1 1f22      	ROL  R18
0013e2 1f33      	ROL  R19
0013e3 1c11      	ROL  R1
0013e4 1faa      	ROL  R26
0013e5 1fbb      	ROL  R27
0013e6 1f88      	ROL  R24
0013e7 1f44      	ROL  R20
0013e8 959a      	DEC  R25
0013e9 f751      	BRNE __DIVF212
0013ea 01f9      	MOVW R30,R18
0013eb 2d61      	MOV  R22,R1
0013ec 914f      	POP  R20
0013ed 913f      	POP  R19
0013ee 912f      	POP  R18
0013ef 911f      	POP  R17
0013f0 2366      	TST  R22
0013f1 f032      	BRMI __DIVF215
0013f2 0f55      	LSL  R21
0013f3 1fee      	ROL  R30
0013f4 1fff      	ROL  R31
0013f5 1f66      	ROL  R22
0013f6 957a      	DEC  R23
0013f7 f243      	BRVS __DIVF217
                 __DIVF215:
0013f8 de7f      	RCALL __ROUND_REPACK
0013f9 915f      	POP  R21
0013fa 9508      	RET
                 
                 __CMPF12:
0013fb 2399      	TST  R25
0013fc f09a      	BRMI __CMPF120
0013fd 2377      	TST  R23
0013fe f042      	BRMI __CMPF121
0013ff 1797      	CP   R25,R23
001400 f048      	BRLO __CMPF122
001401 f429      	BRNE __CMPF121
001402 17ae      	CP   R26,R30
001403 07bf      	CPC  R27,R31
001404 0786      	CPC  R24,R22
001405 f020      	BRLO __CMPF122
001406 f031      	BREQ __CMPF123
                 __CMPF121:
001407 9498      	CLZ
001408 9488      	CLC
001409 9508      	RET
                 __CMPF122:
00140a 9498      	CLZ
00140b 9408      	SEC
00140c 9508      	RET
                 __CMPF123:
00140d 9418      	SEZ
00140e 9488      	CLC
00140f 9508      	RET
                 __CMPF120:
001410 2377      	TST  R23
001411 f7c2      	BRPL __CMPF122
001412 1797      	CP   R25,R23
001413 f398      	BRLO __CMPF121
001414 f7a9      	BRNE __CMPF122
001415 17ea      	CP   R30,R26
001416 07fb      	CPC  R31,R27
001417 0768      	CPC  R22,R24
001418 f388      	BRLO __CMPF122
001419 f399      	BREQ __CMPF123
00141a cfec      	RJMP __CMPF121
                 
                 __ADDD12:
00141b 0fea      	ADD  R30,R26
00141c 1ffb      	ADC  R31,R27
00141d 1f68      	ADC  R22,R24
00141e 1f79      	ADC  R23,R25
00141f 9508      	RET
                 
                 __SUBD12:
001420 1bea      	SUB  R30,R26
001421 0bfb      	SBC  R31,R27
001422 0b68      	SBC  R22,R24
001423 0b79      	SBC  R23,R25
001424 9508      	RET
                 
                 __ANEGW1:
001425 95f1      	NEG  R31
001426 95e1      	NEG  R30
001427 40f0      	SBCI R31,0
001428 9508      	RET
                 
                 __ANEGD1:
001429 95f0      	COM  R31
00142a 9560      	COM  R22
00142b 9570      	COM  R23
00142c 95e1      	NEG  R30
00142d 4fff      	SBCI R31,-1
00142e 4f6f      	SBCI R22,-1
00142f 4f7f      	SBCI R23,-1
001430 9508      	RET
                 
                 __CWD1:
001431 2f6f      	MOV  R22,R31
001432 0f66      	ADD  R22,R22
001433 0b66      	SBC  R22,R22
001434 2f76      	MOV  R23,R22
001435 9508      	RET
                 
                 __CWD2:
001436 2f8b      	MOV  R24,R27
001437 0f88      	ADD  R24,R24
001438 0b88      	SBC  R24,R24
001439 2f98      	MOV  R25,R24
00143a 9508      	RET
                 
                 __LTW12U:
00143b 17ae      	CP   R26,R30
00143c 07bf      	CPC  R27,R31
00143d e0e1      	LDI  R30,1
00143e f008      	BRLO __LTW12UT
00143f 27ee      	CLR  R30
                 __LTW12UT:
001440 9508      	RET
                 
                 __MULW12U:
001441 9ffa      	MUL  R31,R26
001442 2df0      	MOV  R31,R0
001443 9feb      	MUL  R30,R27
001444 0df0      	ADD  R31,R0
001445 9fea      	MUL  R30,R26
001446 2de0      	MOV  R30,R0
001447 0df1      	ADD  R31,R1
001448 9508      	RET
                 
                 __MULD12U:
001449 9f7a      	MUL  R23,R26
00144a 2d70      	MOV  R23,R0
00144b 9f6b      	MUL  R22,R27
00144c 0d70      	ADD  R23,R0
00144d 9ff8      	MUL  R31,R24
00144e 0d70      	ADD  R23,R0
00144f 9fe9      	MUL  R30,R25
001450 0d70      	ADD  R23,R0
001451 9f6a      	MUL  R22,R26
001452 2d60      	MOV  R22,R0
001453 0d71      	ADD  R23,R1
001454 9ffb      	MUL  R31,R27
001455 0d60      	ADD  R22,R0
001456 1d71      	ADC  R23,R1
001457 9fe8      	MUL  R30,R24
001458 0d60      	ADD  R22,R0
001459 1d71      	ADC  R23,R1
00145a 2788      	CLR  R24
00145b 9ffa      	MUL  R31,R26
00145c 2df0      	MOV  R31,R0
00145d 0d61      	ADD  R22,R1
00145e 1f78      	ADC  R23,R24
00145f 9feb      	MUL  R30,R27
001460 0df0      	ADD  R31,R0
001461 1d61      	ADC  R22,R1
001462 1f78      	ADC  R23,R24
001463 9fea      	MUL  R30,R26
001464 2de0      	MOV  R30,R0
001465 0df1      	ADD  R31,R1
001466 1f68      	ADC  R22,R24
001467 1f78      	ADC  R23,R24
001468 9508      	RET
                 
                 __MULW12:
001469 d04e      	RCALL __CHKSIGNW
00146a dfd6      	RCALL __MULW12U
00146b f40e      	BRTC __MULW121
00146c dfb8      	RCALL __ANEGW1
                 __MULW121:
00146d 9508      	RET
                 
                 __MULD12:
00146e d057      	RCALL __CHKSIGND
00146f dfd9      	RCALL __MULD12U
001470 f40e      	BRTC __MULD121
001471 dfb7      	RCALL __ANEGD1
                 __MULD121:
001472 9508      	RET
                 
                 __DIVW21U:
001473 2400      	CLR  R0
001474 2411      	CLR  R1
001475 e190      	LDI  R25,16
                 __DIVW21U1:
001476 0faa      	LSL  R26
001477 1fbb      	ROL  R27
001478 1c00      	ROL  R0
001479 1c11      	ROL  R1
00147a 1a0e      	SUB  R0,R30
00147b 0a1f      	SBC  R1,R31
00147c f418      	BRCC __DIVW21U2
00147d 0e0e      	ADD  R0,R30
00147e 1e1f      	ADC  R1,R31
00147f c001      	RJMP __DIVW21U3
                 __DIVW21U2:
001480 60a1      	SBR  R26,1
                 __DIVW21U3:
001481 959a      	DEC  R25
001482 f799      	BRNE __DIVW21U1
001483 01fd      	MOVW R30,R26
001484 01d0      	MOVW R26,R0
001485 9508      	RET
                 
                 __DIVW21:
001486 d031      	RCALL __CHKSIGNW
001487 dfeb      	RCALL __DIVW21U
001488 f40e      	BRTC __DIVW211
001489 df9b      	RCALL __ANEGW1
                 __DIVW211:
00148a 9508      	RET
                 
                 __DIVD21U:
00148b 933f      	PUSH R19
00148c 934f      	PUSH R20
00148d 935f      	PUSH R21
00148e 2400      	CLR  R0
00148f 2411      	CLR  R1
001490 2744      	CLR  R20
001491 2755      	CLR  R21
001492 e230      	LDI  R19,32
                 __DIVD21U1:
001493 0faa      	LSL  R26
001494 1fbb      	ROL  R27
001495 1f88      	ROL  R24
001496 1f99      	ROL  R25
001497 1c00      	ROL  R0
001498 1c11      	ROL  R1
001499 1f44      	ROL  R20
00149a 1f55      	ROL  R21
00149b 1a0e      	SUB  R0,R30
00149c 0a1f      	SBC  R1,R31
00149d 0b46      	SBC  R20,R22
00149e 0b57      	SBC  R21,R23
00149f f428      	BRCC __DIVD21U2
0014a0 0e0e      	ADD  R0,R30
0014a1 1e1f      	ADC  R1,R31
0014a2 1f46      	ADC  R20,R22
0014a3 1f57      	ADC  R21,R23
0014a4 c001      	RJMP __DIVD21U3
                 __DIVD21U2:
0014a5 60a1      	SBR  R26,1
                 __DIVD21U3:
0014a6 953a      	DEC  R19
0014a7 f759      	BRNE __DIVD21U1
0014a8 01fd      	MOVW R30,R26
0014a9 01bc      	MOVW R22,R24
0014aa 01d0      	MOVW R26,R0
0014ab 01ca      	MOVW R24,R20
0014ac 915f      	POP  R21
0014ad 914f      	POP  R20
0014ae 913f      	POP  R19
0014af 9508      	RET
                 
                 __DIVD21:
0014b0 d015      	RCALL __CHKSIGND
0014b1 dfd9      	RCALL __DIVD21U
0014b2 f40e      	BRTC __DIVD211
0014b3 df75      	RCALL __ANEGD1
                 __DIVD211:
0014b4 9508      	RET
                 
                 __MODW21U:
0014b5 dfbd      	RCALL __DIVW21U
0014b6 01fd      	MOVW R30,R26
0014b7 9508      	RET
                 
                 __CHKSIGNW:
0014b8 94e8      	CLT
0014b9 fff7      	SBRS R31,7
0014ba c002      	RJMP __CHKSW1
0014bb df69      	RCALL __ANEGW1
0014bc 9468      	SET
                 __CHKSW1:
0014bd ffb7      	SBRS R27,7
0014be c006      	RJMP __CHKSW2
0014bf 95a0      	COM  R26
0014c0 95b0      	COM  R27
0014c1 9611      	ADIW R26,1
0014c2 f800      	BLD  R0,0
0014c3 9403      	INC  R0
0014c4 fa00      	BST  R0,0
                 __CHKSW2:
0014c5 9508      	RET
                 
                 __CHKSIGND:
0014c6 94e8      	CLT
0014c7 ff77      	SBRS R23,7
0014c8 c002      	RJMP __CHKSD1
0014c9 df5f      	RCALL __ANEGD1
0014ca 9468      	SET
                 __CHKSD1:
0014cb ff97      	SBRS R25,7
0014cc c00b      	RJMP __CHKSD2
0014cd 2400      	CLR  R0
0014ce 95a0      	COM  R26
0014cf 95b0      	COM  R27
0014d0 9580      	COM  R24
0014d1 9590      	COM  R25
0014d2 9611      	ADIW R26,1
0014d3 1d80      	ADC  R24,R0
0014d4 1d90      	ADC  R25,R0
0014d5 f800      	BLD  R0,0
0014d6 9403      	INC  R0
0014d7 fa00      	BST  R0,0
                 __CHKSD2:
0014d8 9508      	RET
                 
                 __GETW1P:
0014d9 91ed      	LD   R30,X+
0014da 91fc      	LD   R31,X
0014db 9711      	SBIW R26,1
0014dc 9508      	RET
                 
                 __GETD1S0:
0014dd 81e8      	LD   R30,Y
0014de 81f9      	LDD  R31,Y+1
0014df 816a      	LDD  R22,Y+2
0014e0 817b      	LDD  R23,Y+3
0014e1 9508      	RET
                 
                 __GETD2S0:
0014e2 81a8      	LD   R26,Y
0014e3 81b9      	LDD  R27,Y+1
0014e4 818a      	LDD  R24,Y+2
0014e5 819b      	LDD  R25,Y+3
0014e6 9508      	RET
                 
                 __PUTD1S0:
0014e7 83e8      	ST   Y,R30
0014e8 83f9      	STD  Y+1,R31
0014e9 836a      	STD  Y+2,R22
0014ea 837b      	STD  Y+3,R23
0014eb 9508      	RET
                 
                 __PUTPARD1:
0014ec 937a      	ST   -Y,R23
0014ed 936a      	ST   -Y,R22
0014ee 93fa      	ST   -Y,R31
0014ef 93ea      	ST   -Y,R30
0014f0 9508      	RET
                 
                 __SWAPD12:
0014f1 2e18      	MOV  R1,R24
0014f2 2f86      	MOV  R24,R22
0014f3 2d61      	MOV  R22,R1
0014f4 2e19      	MOV  R1,R25
0014f5 2f97      	MOV  R25,R23
0014f6 2d71      	MOV  R23,R1
                 
                 __SWAPW12:
0014f7 2e1b      	MOV  R1,R27
0014f8 2fbf      	MOV  R27,R31
0014f9 2df1      	MOV  R31,R1
                 
                 __SWAPB12:
0014fa 2e1a      	MOV  R1,R26
0014fb 2fae      	MOV  R26,R30
0014fc 2de1      	MOV  R30,R1
0014fd 9508      	RET
                 
                 __COPYMML:
0014fe 2799      	CLR  R25
                 __COPYMM:
0014ff 93ef      	PUSH R30
001500 93ff      	PUSH R31
                 __COPYMM0:
001501 9161      	LD   R22,Z+
001502 936d      	ST   X+,R22
001503 9701      	SBIW R24,1
001504 f7e1      	BRNE __COPYMM0
001505 91ff      	POP  R31
001506 91ef      	POP  R30
001507 9508      	RET
                 
                 __CPD10:
001508 9730      	SBIW R30,0
001509 4060      	SBCI R22,0
00150a 4070      	SBCI R23,0
00150b 9508      	RET
                 
                 __CPD02:
00150c 2400      	CLR  R0
00150d 160a      	CP   R0,R26
00150e 060b      	CPC  R0,R27
00150f 0608      	CPC  R0,R24
001510 0609      	CPC  R0,R25
001511 9508      	RET
                 
                 __SAVELOCR6:
001512 935a      	ST   -Y,R21
                 __SAVELOCR5:
001513 934a      	ST   -Y,R20
                 __SAVELOCR4:
001514 933a      	ST   -Y,R19
                 __SAVELOCR3:
001515 932a      	ST   -Y,R18
                 __SAVELOCR2:
001516 931a      	ST   -Y,R17
001517 930a      	ST   -Y,R16
001518 9508      	RET
                 
                 __LOADLOCR6:
001519 815d      	LDD  R21,Y+5
                 __LOADLOCR5:
00151a 814c      	LDD  R20,Y+4
                 __LOADLOCR4:
00151b 813b      	LDD  R19,Y+3
                 __LOADLOCR3:
00151c 812a      	LDD  R18,Y+2
                 __LOADLOCR2:
00151d 8119      	LDD  R17,Y+1
00151e 8108      	LD   R16,Y
00151f 9508      	RET
                 
                 __INITLOCB:
                 __INITLOCW:
001520 0fac      	ADD  R26,R28
001521 1fbd      	ADC  R27,R29
                 __INITLOC0:
001522 9005      	LPM  R0,Z+
001523 920d      	ST   X+,R0
001524 958a      	DEC  R24
001525 f7e1      	BRNE __INITLOC0
001526 9508      	RET
                 
                 ;END OF CODE MARKER
                 __END_OF_CODE:


RESOURCE USE INFORMATION
------------------------

Notice:
The register and instruction counts are symbol table hit counts,
and hence implicitly used resources are not counted, eg, the
'lpm' instruction without operands implicitly uses r0 and z,
none of which are counted.

x,y,z are separate entities in the symbol table and are
counted separately from r26..r31 here.

.dseg memory usage only counts static data declared with .byte

ATmega32A register use summary:
r0 :  69 r1 :  47 r2 :   1 r3 :   0 r4 :   0 r5 :   0 r6 :   0 r7 :   0 
r8 :   0 r9 :   0 r10:   2 r11:   1 r12:   4 r13:   2 r14:   0 r15:   2 
r16:  85 r17: 128 r18:  31 r19:  37 r20:  52 r21:  85 r22: 129 r23: 120 
r24:  92 r25:  77 r26: 335 r27: 177 r28:  31 r29:   2 r30:1019 r31: 446 
x  :  28 y  : 619 z  :  15 
Registers used: 27 out of 35 (77.1%)

ATmega32A instruction use summary:
.lds  :   0 .lds.l:   0 .sts  :   0 .sts.l:   0 adc   :  52 add   :  41 
adiw  :  28 and   :   6 andi  :   1 asr   :   0 bclr  :   0 bld   :   5 
brbc  :   0 brbs  :   0 brcc  :  10 brcs  :   1 break :   0 breq  :  33 
brge  :  20 brhc  :   0 brhs  :   0 brid  :   0 brie  :   0 brlo  :  24 
brlt  :   9 brmi  :   9 brne  :  95 brpl  :  10 brsh  :  31 brtc  :   6 
brts  :   2 brvc  :   4 brvs  :   4 bset  :   0 bst   :   4 call  : 535 
cbi   :  35 cbr   :   1 clc   :   3 clh   :   0 cli   :   3 cln   :   0 
clr   :  48 cls   :   0 clt   :   5 clv   :   0 clz   :   2 com   :  14 
cp    :  19 cpc   : 105 cpi   : 125 cpse  :   0 dec   :  14 des   :   0 
eor   :   7 fmul  :   0 fmuls :   0 fmulsu:   0 icall :   0 ijmp  :   0 
in    :  11 inc   :   4 jmp   :  62 ld    :  70 ldd   : 192 ldi   : 662 
lds   : 132 lpm   :  10 lsl   :  16 lsr   :   4 mov   :  70 movw  :  46 
mul   :  22 muls  :   0 mulsu :   0 neg   :   4 nop   :   0 or    :   0 
ori   :   5 out   :  71 pop   :  29 push  :  29 rcall : 112 ret   : 135 
reti  :   3 rjmp  : 186 rol   :  36 ror   :  16 sbc   :  22 sbci  :  33 
sbi   :  60 sbic  :   7 sbis  :  14 sbiw  :  39 sbr   :   4 sbrc  :   1 
sbrs  :   6 sec   :   5 seh   :   0 sei   :   3 sen   :   0 ser   :   8 
ses   :   0 set   :   5 sev   :   0 sez   :   1 sleep :   0 spm   :   0 
st    : 242 std   : 149 sts   :  83 sub   :  14 subi  :  51 swap  :   0 
tst   :  20 wdr   :   1 
Instructions used: 80 out of 116 (69.0%)

ATmega32A memory use summary [bytes]:
Segment   Begin    End      Code   Data   Used    Size   Use%
---------------------------------------------------------------
[.cseg] 0x000000 0x002a4e   9634   1196  10830   32768  33.1%
[.dseg] 0x000060 0x00057d      0    797    797    2143  37.2%
[.eseg] 0x000000 0x000000      0      0      0    1024   0.0%

Assembly complete, 0 errors, 17 warnings
